(dp0
Vraining
p1
I0
sVwritings
p2
I4540
sVfoul
p3
I1
sVfour
p4
I2
sVneckties
p5
I3
sVwoods
p6
I4
sVornate
p7
I4543
sVwoody
p8
I6
sVcomically
p9
I7
sVmarching
p10
I4544
sVcanes
p11
I8
sVsnowing
p12
I33
sVsunlit
p13
I4546
sVdeckered
p14
I10
sVshaving
p15
I4547
sVsinking
p16
I11
sVpropane
p17
I13
sVoceans
p18
I14
sVdell
p19
I4549
sVleisurely
p20
I15
sVpolitician
p21
I3042
sVstabbed
p22
I16
sVbringing
p23
I17
sVflys
p24
I2020
sVwooded
p25
I18
sVprize
p26
I4553
sVwooden
p27
I19
sVsatchel
p28
I4554
sVfrizbee
p29
I82
sVcrotch
p30
I20
sVfritter
p31
I4557
sVornamental
p32
I21
sVcharter
p33
I4558
sVglassy
p34
I95
sVspecially
p35
I96
sVtired
p36
I4560
sVmiller
p37
I102
sVsnuggles
p38
I23
sVhanging
p39
I5
sVbacon
p40
I2071
sVscraper
p41
I24
sVtires
p42
I4561
sVbannister
p43
I25
sVrusty
p44
I4447
sVtether
p45
I4564
sVsterile
p46
I4565
sVsnuggled
p47
I26
sVblouse
p48
I4566
sVadmire
p49
I750
sVdangled
p50
I4567
sVcooking
p51
I27
sVfingers
p52
I4569
sVnumeral
p53
I28
sVcrouch
p54
I29
sVreporter
p55
I4571
sVherb
p56
I4572
sVhere
p57
I4573
sVherd
p58
I4574
sVchina
p59
I30
sVhers
p60
I168
sVkids
p61
I31
sVk
p62
I32
sVelectricity
p63
I4545
sVtortoiseshell
p64
I4579
sVtalbe
p65
I34
sVclimber
p66
I35
sVgolden
p67
I36
sVprojection
p68
I37
sVbrought
p69
I4582
sVstern
p70
I38
sVunit
p71
I6239
sVopponents
p72
I39
sVspoke
p73
I4584
sVgeisha
p74
I227
sVbrowse
p75
I40
sVoccupying
p76
I235
sVkettles
p77
I4586
sVmusic
p78
I42
sVtelegraph
p79
I4587
sVpassport
p80
I245
sVstrike
p81
I43
sVuntil
p82
I4588
sVfemales
p83
I259
sVrelax
p84
I4589
sVsuccessful
p85
I4590
sVbrings
p86
I3481
sVhurt
p87
I4591
sVglass
p88
I4592
sVtying
p89
I4593
sVmidst
p90
I4594
sVhold
p91
I5650
sVtastefully
p92
I284
sVlocked
p93
I47
sVblade
p94
I4596
sVlocker
p95
I48
sVshelve
p96
I49
sVplunger
p97
I50
sVexample
p98
I51
sVmelons
p99
I4597
sVwand
p100
I52
sVhousehold
p101
I4599
sVorganized
p102
I4600
sVstoves
p103
I3050
sVbuliding
p104
I53
sVcaution
p105
I54
sVwant
p106
I55
sVorganizer
p107
I4601
sVpinto
p108
I56
sVsomebodys
p109
I4602
sVhog
p110
I9152
sVknows
p111
I4603
sVtravel
p112
I57
sVdrying
p113
I4604
sVdamage
p114
I4605
sVmachine
p115
I4606
sVdeli
p116
I4548
sVhot
p117
I361
sVbarstools
p118
I58
sVcheetah
p119
I4608
sVvoid
p120
I2209
sVgaming
p121
I4611
sVbeauty
p122
I4612
sVcuisine
p123
I755
sVsippy
p124
I4613
sVdiagram
p125
I383
sVdinosaurs
p126
I59
sVmodest
p127
I60
sVtypes
p128
I62
sVcolorfully
p129
I63
sVcalves
p130
I4616
sVyouths
p131
I402
sVbaggage
p132
I5864
sVkeeps
p133
I4618
sVwing
p134
I4619
sVbackdrop
p135
I425
sVwine
p136
I4621
sVmurals
p137
I4622
sVbutcher
p138
I3052
sVdiagonally
p139
I4623
sVwrought
p140
I66
sVfir
p141
I67
sVlovingly
p142
I4625
sVfit
p143
I69
sVdirectional
p144
I4626
sVplantains
p145
I2541
sVfix
p146
I70
sVdiffrent
p147
I4627
sVbulding
p148
I71
sVhidden
p149
I4628
sVfin
p150
I72
sVeasier
p151
I73
sVduvet
p152
I4629
sVslate
p153
I74
sVslicing
p154
I4631
sVeffects
p155
I75
sVmimicking
p156
I486
sVslats
p157
I489
sVsilver
p158
I4634
sVheadboard
p159
I491
sVgrasslands
p160
I499
sVclothed
p161
I4636
sVspotless
p162
I4637
sVarrow
p163
I76
sVwindmill
p164
I3055
sVtelescope
p165
I79
sVseries
p166
I80
sVblinder
p167
I4639
sVspider
p168
I524
sVbowls
p169
I4640
sVgrapefruits
p170
I81
sVcathedral
p171
I536
sVwhit
p172
I4641
sVring
p173
I1516
sVwhip
p174
I4642
sVrv
p175
I83
sVsmirk
p176
I84
sVmason
p177
I85
sVrd
p178
I86
sVre
p179
I87
sVpumpkins
p180
I88
sVgrapes
p181
I4644
sVsheet
p182
I6166
sVknit
p183
I4645
sVenormous
p184
I3931
sVate
p185
I4646
sVexposing
p186
I604
sVshelves
p187
I6449
sVlshaped
p188
I90
sVatm
p189
I4647
sVflurry
p190
I91
sVheading
p191
I6321
sVtakeout
p192
I2362
sVmusicians
p193
I615
sVeatting
p194
I4649
sVtempting
p195
I6898
sVkingdom
p196
I93
sVleaps
p197
I5371
sVbratwurst
p198
I4651
sVspeeds
p199
I94
sVstripe
p200
I3059
sVplayfully
p201
I640
sVveggie
p202
I4652
sVshopped
p203
I4653
sVwash
p204
I4654
sVspinning
p205
I647
sVpartiallyeaten
p206
I4655
sVdaybed
p207
I4559
sVbitten
p208
I4656
sVwindmills
p209
I2742
sVbasketball
p210
I97
sVrenovated
p211
I98
sVservice
p212
I99
sVsimilarly
p213
I660
sVcooling
p214
I1521
sVneeded
p215
I100
sVmaster
p216
I101
sVlisted
p217
I4658
sVblossoms
p218
I4659
sVchugging
p219
I4660
sVlegs
p220
I4661
sVranging
p221
I4662
sVlisten
p222
I4663
sVdanish
p223
I4664
sVcushions
p224
I4665
sVlunges
p225
I103
sVbathtubshower
p226
I504
sVjapanese
p227
I4667
sVmotionless
p228
I3238
sVtrek
p229
I104
sVshowed
p230
I105
sVelegant
p231
I4562
sVhyenas
p232
I715
sVtree
p233
I106
sVsecond
p234
I2700
sVidly
p235
I107
sVproject
p236
I108
sVidle
p237
I109
sVfeeling
p238
I110
sVrunner
p239
I111
sVboston
p240
I4672
sVpaddles
p241
I4673
sVshrubs
p242
I112
sVdozen
p243
I113
sVescalator
p244
I760
sVconcrete
p245
I761
sVbleachers
p246
I115
sVsoaked
p247
I2443
sVeagerly
p248
I4677
sVmetallic
p249
I4678
sVracers
p250
I116
sVcausing
p251
I4679
sVinstructs
p252
I117
sVamusing
p253
I118
sVdoors
p254
I119
sVseason
p255
I4680
sVgrips
p256
I120
sVpaintbrush
p257
I4681
sVcrossbones
p258
I2682
sVzebras
p259
I4682
sVobject
p260
I800
sVlooming
p261
I4683
sVvictoria
p262
I4684
sVrears
p263
I345
sVmouth
p264
I122
sVletter
p265
I4685
sVorganization
p266
I123
sVretaining
p267
I4686
sVmacbook
p268
I4687
sVbarechested
p269
I4688
sVdummy
p270
I124
sVsinger
p271
I125
sVreleased
p272
I4690
sVgrove
p273
I4691
sVcamp
p274
I127
sVtech
p275
I129
sVmating
p276
I131
sVincomplete
p277
I4693
sVsaying
p278
I133
sVboogie
p279
I4568
sVbomb
p280
I4694
sVdeparting
p281
I4695
sVpadded
p282
I134
sVgauge
p283
I4696
sVhazy
p284
I2218
sVparticipate
p285
I135
sVrecliner
p286
I4698
sVreclines
p287
I4699
sVlessons
p288
I136
sVnightstands
p289
I4700
sVbusy
p290
I875
sVlayout
p291
I876
sVlazing
p292
I4702
sVquaint
p293
I137
sVmenu
p294
I4703
sVbust
p295
I885
sVmens
p296
I4705
sVbush
p297
I889
sVtouched
p298
I4707
sVrich
p299
I138
sVlonghorn
p300
I4708
sVrice
p301
I139
sVplate
p302
I140
sVhonda
p303
I3723
sVpocket
p304
I141
sVcushion
p305
I4711
sVplats
p306
I3472
sVrelish
p307
I142
sVblackfaced
p308
I144
sVspilling
p309
I145
sVnicely
p310
I146
sVtights
p311
I4715
sVboarder
p312
I147
sVdipping
p313
I148
sVpretzel
p314
I149
sVpatch
p315
I150
sVpiggy
p316
I4716
sVflanked
p317
I4717
sVrelease
p318
I4718
sVboarded
p319
I151
sVfair
p320
I4719
sVperipheral
p321
I963
sVpads
p322
I152
sVfail
p323
I4720
sVhero
p324
I4570
sVskulls
p325
I980
sVbest
p326
I4722
sVlots
p327
I153
sVsombrero
p328
I154
sVrings
p329
I155
sVstamps
p330
I4724
sVscore
p331
I4725
sVyogurt
p332
I156
sVcubby
p333
I1009
sVpirate
p334
I4727
sVskimpy
p335
I158
sVpreserve
p336
I4729
sVclaws
p337
I4730
sVmen
p338
I2223
sVextend
p339
I160
sVnature
p340
I161
sVrolled
p341
I4731
sVtoilette
p342
I4732
sVbuiding
p343
I162
sVwheelbarrow
p344
I163
sVwth
p345
I4733
sVroller
p346
I4734
sVaccident
p347
I4735
sVbrown
p348
I6040
sVcountry
p349
I1032
sVheating
p350
I165
sVbodysuit
p351
I1038
sVlevitating
p352
I166
sVpita
p353
I4736
sV30th
p354
I4737
sVunbuttoned
p355
I1055
sVsheepdog
p356
I5152
sVsepiatoned
p357
I4739
sVmunches
p358
I167
sV2nd
p359
I4740
sVdorm
p360
I4576
sVcanyon
p361
I4741
sVgleaming
p362
I169
sVblending
p363
I1069
sVblonde
p364
I170
sVgrazing
p365
I171
sVarmored
p366
I8522
sVpillars
p367
I5381
sVlighthouse
p368
I1081
sVwatercraft
p369
I4742
sVskatepark
p370
I4743
sVunion
p371
I173
sVfro
p372
I174
sVroofed
p373
I1089
sVstadium
p374
I176
sVfry
p375
I177
sVpro
p376
I4747
sVcub
p377
I3074
sVdots
p378
I178
sVobese
p379
I179
sVlife
p380
I4748
sVcrying
p381
I5384
sVeastern
p382
I4749
sVskiis
p383
I4750
sVworker
p384
I180
sVracquets
p385
I4751
sVstrewn
p386
I181
sVchild
p387
I4753
sVchili
p388
I4754
sVeaster
p389
I3075
sVbuckled
p390
I4756
sVprofessionally
p391
I183
sVcontemplates
p392
I1131
sVflooding
p393
I1561
sVelaborate
p394
I184
sVskirts
p395
I4757
sVplayed
p396
I4758
sVplayer
p397
I1159
sVaustralia
p398
I777
sVupscale
p399
I186
sVanticipating
p400
I187
sVviolin
p401
I557
sVhong
p402
I1180
sVtaped
p403
I6922
sVthings
p404
I4760
sVyellow
p405
I4542
sVtoaster
p406
I1185
sVhonk
p407
I190
sVsplit
p408
I191
sVbabies
p409
I4762
sVcouple
p410
I779
sVeuropean
p411
I192
sVfairly
p412
I4763
sVboiled
p413
I193
sVtops
p414
I4764
sVphotographers
p415
I194
sVmilitary
p416
I4580
sVtuna
p417
I2483
sVcrosstown
p418
I1237
sVburgers
p419
I4767
sVstillness
p420
I195
sVgoofing
p421
I196
sVsimulated
p422
I197
sVnachos
p423
I4768
sVcorporate
p424
I198
sVplaque
p425
I199
sVcapitol
p426
I200
sVsleeps
p427
I201
sVsleepy
p428
I1267
sVshading
p429
I781
sVrushing
p430
I1284
sVlasso
p431
I202
sVcollectibles
p432
I4770
sVenters
p433
I4771
sVham
p434
I203
sVease
p435
I4772
sVhad
p436
I205
sVhay
p437
I206
sVeasy
p438
I4791
sVprison
p439
I4774
sVduffel
p440
I207
sVeast
p441
I4775
sVhat
p442
I209
sVcasually
p443
I4776
sVconfection
p444
I210
sVposed
p445
I5411
sVpossible
p446
I4777
sVpossibly
p447
I4778
sVwiht
p448
I211
sVbirth
p449
I4779
sVcalfs
p450
I4781
sVshadow
p451
I213
sVposes
p452
I1326
sVbushy
p453
I8512
sVsliced
p454
I2236
sVarticulated
p455
I4783
sVseaside
p456
I4784
sVpavement
p457
I4785
sVsteps
p458
I4787
sVright
p459
I4788
sVold
p460
I4789
sVcreek
p461
I1357
sVcrowd
p462
I214
sVpeople
p463
I4790
sVcrown
p464
I215
sVbegin
p465
I216
sVcaptive
p466
I217
sVbillboard
p467
I218
sVattendees
p468
I4794
sVruffled
p469
I8548
sVfor
p470
I4795
sVbottom
p471
I219
sVfox
p472
I4796
sVcreative
p473
I1391
sVcontinue
p474
I3760
sVshaker
p475
I220
sVshakes
p476
I221
sVdental
p477
I4798
sVtrampoline
p478
I4799
sVbinder
p479
I224
sVstarring
p480
I225
sVlosing
p481
I1432
sVpliers
p482
I1434
sVbowing
p483
I6099
sVmanufacturing
p484
I4800
sVemits
p485
I4801
sVbenches
p486
I226
sVboiling
p487
I4802
sVdollars
p488
I4803
sVcitizens
p489
I4804
sVo
p490
I4805
sVseaplane
p491
I4807
sVhyrdrant
p492
I4808
sVslightly
p493
I4809
sVmotorcyclist
p494
I3403
sVflatbread
p495
I4810
sVraised
p496
I228
sVgauze
p497
I4811
sVfacility
p498
I1480
sVson
p499
I230
sVjuicing
p500
I3400
sVvalleys
p501
I3083
sVmagazines
p502
I1491
sVraises
p503
I231
sVmangos
p504
I232
sVwrap
p505
I1497
sVsox
p506
I233
sVshoots
p507
I234
sVfabric
p508
I236
sVwaits
p509
I237
sVpanorama
p510
I4813
sValtitude
p511
I238
sVwidth
p512
I4814
sVgrasping
p513
I240
sVoverhead
p514
I4815
sVavocados
p515
I241
sVoverhand
p516
I242
sVlaunching
p517
I243
sVgrooms
p518
I244
sVoffer
p519
I1535
sVsundaes
p520
I792
sVtigers
p521
I4819
sVmanmade
p522
I1540
sVpeperoni
p523
I247
sVcanopies
p524
I1552
sVonlooker
p525
I4820
sVpaneled
p526
I249
sVrippling
p527
I250
sVpeson
p528
I251
sVdevices
p529
I252
sVlays
p530
I4821
sVservings
p531
I253
sVsmashed
p532
I254
sVpanels
p533
I4822
sVpassenger
p534
I255
sVjuvenile
p535
I4823
sVlooms
p536
I1572
sVtournament
p537
I4825
sVbathrobe
p538
I4826
sVtextbook
p539
I257
sVsomebody
p540
I4066
sVcalzones
p541
I258
sVpaperwork
p542
I44
sVtriangles
p543
I260
sVpeeping
p544
I1261
sVcrutches
p545
I4828
sVdotted
p546
I4829
sVfloor
p547
I4830
sVglacier
p548
I261
sVcrowns
p549
I262
sVcocacola
p550
I3087
sVflood
p551
I4831
sVwarms
p552
I4832
sVrole
p553
I263
sVprotester
p554
I4833
sVtrophies
p555
I6095
sVsmell
p556
I4834
sVroll
p557
I265
sVgreenery
p558
I266
sVmodels
p559
I267
sVtransported
p560
I268
sVintent
p561
I269
sVsmelling
p562
I270
sVrolling
p563
I4836
sVcongested
p564
I1642
sVfastened
p565
I1646
sVmarathon
p566
I4761
sVpackets
p567
I4837
sVsculpted
p568
I3828
sVtime
p569
I4838
sVpush
p570
I4839
sVoverturned
p571
I271
sVgown
p572
I272
sVchilds
p573
I273
sVchain
p574
I275
sVburritos
p575
I276
sVskate
p576
I1672
sVskiing
p577
I277
sVtrashcan
p578
I4842
sVforage
p579
I3829
sVchair
p580
I278
sVhole
p581
I279
sVentwined
p582
I4843
sVvenice
p583
I1933
sVware
p584
I2244
sVcrates
p585
I280
sVcrater
p586
I281
sVmache
p587
I282
sVbicycles
p588
I1698
sVconnecting
p589
I3090
sVfatigues
p590
I4845
sVicing
p591
I1713
sVcheap
p592
I3831
sVbulletin
p593
I690
sVchoice
p594
I285
sVgloomy
p595
I286
sVservicing
p596
I4846
sVstays
p597
I287
sVexact
p598
I288
sVminute
p599
I289
sVcooks
p600
I291
sVtricycle
p601
I4847
sVtear
p602
I4848
sVtrots
p603
I2248
sVollie
p604
I4850
sVminnie
p605
I292
sVleave
p606
I1749
sVspaces
p607
I3832
sVsubway
p608
I4852
sVteal
p609
I4853
sVteam
p610
I4854
sVinscribed
p611
I4855
sVskewer
p612
I3339
sVloads
p613
I294
sVunaware
p614
I1763
sVprevent
p615
I4856
sVbulldozer
p616
I4857
sVmeadow
p617
I295
sVcollage
p618
I296
sVtrails
p619
I297
sVsteaks
p620
I4858
sVchopping
p621
I299
sVshirts
p622
I300
sVsoccor
p623
I1788
sVadorns
p624
I301
sVparachuting
p625
I302
sVheadset
p626
I303
sVcurrent
p627
I1803
sVlazily
p628
I304
sVsundae
p629
I6681
sVfalling
p630
I4859
sVground
p631
I305
sVcelebrates
p632
I306
sVjunk
p633
I307
sVbanister
p634
I4860
sVclimbs
p635
I308
sVfuneral
p636
I4861
sVaddress
p637
I310
sValone
p638
I4863
sValong
p639
I1830
sVpassengers
p640
I312
sVgnar
p641
I6199
sVdusty
p642
I313
sVqueue
p643
I314
sVcrumbled
p644
I4864
sVstudies
p645
I4866
sVcarpets
p646
I4867
sVtasks
p647
I315
sVlove
p648
I4868
sVradish
p649
I4869
sVbloody
p650
I4871
sVfake
p651
I317
sVtraversing
p652
I4872
sVforefront
p653
I4873
sVcrammed
p654
I1889
sVcocktail
p655
I318
sVsunbathing
p656
I4874
sVworking
p657
I319
sVwicker
p658
I320
sVangry
p659
I321
sVtightly
p660
I4875
sVwondering
p661
I4876
sVfilms
p662
I4877
sVloving
p663
I4878
sVscratched
p664
I323
sVclaus
p665
I1916
sVtundra
p666
I324
sVconsoles
p667
I325
sVeverywhere
p668
I1923
sVscratches
p669
I326
sVriders
p670
I327
sVmascot
p671
I328
sVlogos
p672
I1935
sVgrassing
p673
I4880
sVpretend
p674
I329
sVprinting
p675
I4883
sVstature
p676
I331
sVfollowing
p677
I332
sVinterstate
p678
I1557
sVadmired
p679
I333
sVmirrors
p680
I334
sVawesome
p681
I335
sVmailboxes
p682
I336
sVparachute
p683
I338
sVlocks
p684
I339
sVoatmeal
p685
I3098
sVhides
p686
I4886
sVallowed
p687
I341
sVbarbershop
p688
I2177
sVlistens
p689
I342
sVmonitoring
p690
I343
sVwinter
p691
I4887
sVsilos
p692
I4888
sVbuttered
p693
I344
sVdivided
p694
I4889
sVpoking
p695
I4890
sVvancouver
p696
I2003
sVelephant
p697
I4891
sVdivider
p698
I4892
sVsnaps
p699
I4893
sVlaundry
p700
I2019
sVlandmark
p701
I121
sVspot
p702
I4894
sVlatte
p703
I6423
sVfueled
p704
I346
sVmisshapen
p705
I4896
sVdate
p706
I4897
sVsuch
p707
I2037
sVdove
p708
I1066
sVlids
p709
I2040
sVsurfing
p710
I348
sVnatural
p711
I2044
sVvarieties
p712
I4899
sVwheelchair
p713
I4900
sVplacemat
p714
I2048
sVst
p715
I350
sVdarkened
p716
I4902
sVmango
p717
I351
sVso
p718
I352
sVsnowed
p719
I2053
sVpulled
p720
I353
sVblowup
p721
I354
sVwebpage
p722
I355
sVkayaks
p723
I4905
sVflips
p724
I356
sVkong
p725
I4906
sVdecals
p726
I358
sVcourse
p727
I2068
sVbucking
p728
I8206
sVsolitary
p729
I4907
sVavid
p730
I2081
sVyawning
p731
I4908
sVthumb
p732
I4909
sVhow
p733
I4607
sVmilked
p734
I359
sVbagels
p735
I4911
sVtorn
p736
I360
sVattraction
p737
I4912
sVcreations
p738
I4913
sVcelebrate
p739
I362
sVsuspension
p740
I363
sVapron
p741
I364
sVmatches
p742
I4915
sVrecords
p743
I4916
sVarriving
p744
I4917
sVsorted
p745
I365
sVtwilight
p746
I366
sVketchup
p747
I4919
sVrunners
p748
I4920
sVfisherman
p749
I367
sVbowling
p750
I4922
sVquarter
p751
I2155
sVroomdining
p752
I368
sVturtle
p753
I4924
sVsquare
p754
I2165
sVretrieve
p755
I369
sVreceipt
p756
I370
sVbovine
p757
I4925
sVsponsor
p758
I371
sVentering
p759
I372
sVbeetle
p760
I373
sVsalads
p761
I374
sVflutes
p762
I4926
sVtroll
p763
I375
sVjoker
p764
I3845
sVcanvas
p765
I4928
sVcontainer
p766
I4929
sVrounding
p767
I4930
sVblt
p768
I4931
sVsquared
p769
I376
sVforest
p770
I3183
sVseriously
p771
I377
sVinternet
p772
I378
sVclowns
p773
I3571
sVsquares
p774
I2211
sVbordering
p775
I4934
sVdodgers
p776
I3105
sVquite
p777
I4936
sVspooning
p778
I4937
sVbumps
p779
I379
sVcomplicated
p780
I380
sVbesides
p781
I4034
sVgrandma
p782
I381
sV4way
p783
I382
sVshores
p784
I4614
sVtraining
p785
I5863
sVsilhouetted
p786
I4939
sVjetliners
p787
I4940
sVbackside
p788
I385
sVspam
p789
I4941
sVprogramming
p790
I2253
sVwrong
p791
I386
sVostrich
p792
I4943
sVchevy
p793
I4944
sVsilhouettes
p794
I4946
sVmassive
p795
I4947
sVroutes
p796
I4948
sVrouter
p797
I4949
sVarchitecturally
p798
I5396
sVclause
p799
I4950
sVona
p800
I388
sVpotter
p801
I4952
sVone
p802
I389
sVspokes
p803
I390
sVspanish
p804
I2289
sVvote
p805
I2290
sVchubby
p806
I4953
sVpotted
p807
I4954
sVopen
p808
I2295
sVcity
p809
I391
sVboulevard
p810
I392
sVoccupy
p811
I5424
sVbite
p812
I2306
sVrunways
p813
I4957
sVindicate
p814
I4958
sV2
p815
I4960
sVdraft
p816
I4961
sVstuffed
p817
I393
sVtyping
p818
I4962
sVshoppers
p819
I4963
sVbits
p820
I395
sVwilliams
p821
I4965
sVfloppy
p822
I4967
sVshawl
p823
I396
sVflatscreen
p824
I4968
sVpadding
p825
I2347
sVherds
p826
I398
sVrepresenting
p827
I4969
sVthird
p828
I2264
sVcrossroads
p829
I399
sVcoats
p830
I2378
sVsiding
p831
I4973
sVfuture
p832
I4974
sVglossy
p833
I4975
sVtrekking
p834
I400
sVwandering
p835
I401
sVattracts
p836
I4617
sVsan
p837
I2391
sVturned
p838
I403
sVlocations
p839
I404
sVjewels
p840
I405
sVsad
p841
I2407
sVtastes
p842
I4979
sVrained
p843
I4980
sVburied
p844
I407
sVsaw
p845
I4981
sVsat
p846
I4982
sVhawaiian
p847
I820
sVfashionable
p848
I409
sVwashbasin
p849
I2435
sVdownwards
p850
I410
sVaside
p851
I4985
sVzoo
p852
I411
sVnote
p853
I4987
sVtake
p854
I4988
sVroadside
p855
I4989
sVwanting
p856
I4990
sVatop
p857
I4991
sVbutterfly
p858
I4992
sVhanding
p859
I3033
sVprinter
p860
I413
sValtered
p861
I4993
sVopposite
p862
I414
sVspewing
p863
I415
sVbuffet
p864
I416
sVprinted
p865
I418
sVcrochet
p866
I419
sVknee
p867
I4995
sVinserted
p868
I420
sVwinters
p869
I421
sVarmrest
p870
I422
sVlawn
p871
I423
sVstilts
p872
I4997
sVmontage
p873
I4998
sVaverage
p874
I2496
sVfarmers
p875
I5414
sVdrive
p876
I6820
sVsodas
p877
I4333
sVcrooked
p878
I3853
sVwind
p879
I4620
sVatlantic
p880
I822
sVsalt
p881
I5001
sVaccented
p882
I5002
sVmadison
p883
I2514
sVcherry
p884
I3613
sVgrilling
p885
I5004
sVpeaches
p886
I5454
sVbright
p887
I426
sVaggressive
p888
I427
sVslot
p889
I1928
sVbracelet
p890
I5005
sVslow
p891
I5006
sVslop
p892
I5007
sVdinette
p893
I2556
sVtears
p894
I2558
sVgoing
p895
I5009
sVhockey
p896
I5010
sVequipped
p897
I5011
sVrobe
p898
I5012
sVneath
p899
I5013
sVdirected
p900
I428
sVsuitcases
p901
I2568
sVtilting
p902
I432
sVbalconies
p903
I433
sVwheelie
p904
I2576
sVoutlet
p905
I5015
sVawaiting
p906
I434
sVartist
p907
I2596
sVtiki
p908
I435
sVskyline
p909
I5820
sVpriest
p910
I436
sVsnowsuit
p911
I2612
sVtortilla
p912
I437
sVwhere
p913
I5016
sVvision
p914
I438
sVorchids
p915
I2620
sVartistically
p916
I440
sVdougnuts
p917
I5017
sVus
p918
I5019
sVsurgery
p919
I5020
sVdives
p920
I5021
sVsideburns
p921
I5022
sVjumped
p922
I5023
sVsites
p923
I2662
sVgoers
p924
I5024
sVteacup
p925
I3164
sVmoldy
p926
I441
sVnavigates
p927
I5027
sVenjoys
p928
I442
sVsurfboards
p929
I5029
sVdecks
p930
I5030
sVcantaloupe
p931
I5031
sVcheckered
p932
I2684
sVjobs
p933
I5032
sVuk
p934
I5033
sVvertical
p935
I444
sVscreen
p936
I445
sVdome
p937
I5034
sVsupermarket
p938
I5035
sVawards
p939
I446
sVjets
p940
I5037
sVmans
p941
I447
sVloafs
p942
I5039
sVmajestically
p943
I448
sVmany
p944
I449
sVflipped
p945
I450
sVs
p946
I451
sVconverses
p947
I5041
sVmane
p948
I2726
sVconcentrates
p949
I452
sVgrooming
p950
I453
sVexpression
p951
I5042
sVbackpack
p952
I454
sVstream
p953
I5044
sVboad
p954
I2748
sVtwin
p955
I5045
sVboar
p956
I5046
sVtwig
p957
I5047
sVboat
p958
I5048
sVcaring
p959
I455
sVsprays
p960
I2277
sVcombines
p961
I5049
sVcities
p962
I5050
sVteddy
p963
I5051
sVstretch
p964
I5052
sVwest
p965
I456
sVairliner
p966
I2780
sVartichokes
p967
I457
sVbreath
p968
I5054
sVcombined
p969
I5055
sVreflective
p970
I5056
sVwants
p971
I458
sVbrocoli
p972
I2805
sVlanes
p973
I2807
sVjuts
p974
I5058
sVcenterpiece
p975
I459
sVphotos
p976
I460
sVrooftops
p977
I5059
sVobserve
p978
I5060
sVparasail
p979
I5062
sVzippered
p980
I2838
sVresturant
p981
I5063
sVcanoes
p982
I2847
sVnewspaper
p983
I462
sVsituation
p984
I463
sVspotlight
p985
I464
sVshepard
p986
I5065
sVcanoe
p987
I5066
sVbrow
p988
I5067
sVengaged
p989
I465
sVengages
p990
I466
sVtechnology
p991
I467
sVivy
p992
I2893
sVcafe
p993
I3120
sVwiring
p994
I468
sVcoconuts
p995
I5070
sVwrappers
p996
I469
sVbarbed
p997
I470
sVwires
p998
I2918
sVedged
p999
I471
sVoceanside
p1000
I5072
sVsingapore
p1001
I472
sVcheers
p1002
I5073
sVedges
p1003
I473
sVwired
p1004
I474
sVadvertisement
p1005
I475
sVhummingbird
p1006
I2944
sVmohawk
p1007
I477
sVdriftwood
p1008
I5075
sVvacant
p1009
I5076
sVcustomized
p1010
I478
sVtrains
p1011
I5077
sValfredo
p1012
I5078
sVgrumpy
p1013
I5079
sVsummer
p1014
I4563
sVneighborhood
p1015
I5081
sVsprayed
p1016
I5082
sVsteamed
p1017
I482
sVbeing
p1018
I483
sVrest
p1019
I484
sVsprayer
p1020
I5084
sVbarbecued
p1021
I5085
sVtrimmings
p1022
I3702
sVcilantro
p1023
I485
sVgrounded
p1024
I488
sVinstrument
p1025
I2444
sVprominently
p1026
I5088
sVskies
p1027
I5089
sVskier
p1028
I5090
sVcrusty
p1029
I2367
sVaround
p1030
I492
sVcrusts
p1031
I493
sVperiod
p1032
I3869
sVdark
p1033
I7099
sVscraps
p1034
I7995
sVtraffic
p1035
I495
sVbandage
p1036
I3067
sVvacuum
p1037
I3068
sVworld
p1038
I496
sVpostal
p1039
I497
sVpartaking
p1040
I3077
sVtarp
p1041
I8862
sVclad
p1042
I5094
sVshutter
p1043
I498
sVclay
p1044
I5097
sVclaw
p1045
I5098
sVstationary
p1046
I5911
sVkennel
p1047
I3099
sVgrouping
p1048
I5099
sVseating
p1049
I500
sVfives
p1050
I3104
sVpickled
p1051
I502
sVtvs
p1052
I503
sVlobster
p1053
I506
sVdiving
p1054
I507
sVstagecoach
p1055
I508
sVthinks
p1056
I5101
sVhunches
p1057
I3872
sVwristband
p1058
I3127
sVtote
p1059
I5102
sVsubstance
p1060
I4577
sVtube
p1061
I5103
sVvender
p1062
I3334
sVnook
p1063
I5104
sVtots
p1064
I5105
sVexit
p1065
I5106
sVtubs
p1066
I5107
sVleaned
p1067
I5108
sVpower
p1068
I5109
sVprepared
p1069
I3124
sVducking
p1070
I2285
sVslatted
p1071
I511
sVstone
p1072
I5112
sVpackage
p1073
I512
sVpelicans
p1074
I513
sVfavorite
p1075
I5113
sVslender
p1076
I5114
sVmeal
p1077
I2286
sVnetbook
p1078
I5115
sVact
p1079
I5116
sVdoodling
p1080
I5117
sVmean
p1081
I5118
sVgesturing
p1082
I5119
sVstony
p1083
I5120
sVcurling
p1084
I5121
sVburning
p1085
I3200
sVimage
p1086
I5122
sVlegged
p1087
I514
sVmoped
p1088
I3426
sVwade
p1089
I5123
sVbubbly
p1090
I516
sVher
p1091
I3225
sVhes
p1092
I517
sVbristles
p1093
I518
sVbookcases
p1094
I5125
sVsloped
p1095
I519
sVsides
p1096
I5127
sVsealed
p1097
I521
sVgarment
p1098
I4638
sVslopes
p1099
I3241
sVbubble
p1100
I523
sVcomplete
p1101
I5128
sVgliding
p1102
I3653
sVbundt
p1103
I5130
sVmice
p1104
I884
sVwith
p1105
I526
sVfeaturing
p1106
I3877
sVbuying
p1107
I5132
sVhandsome
p1108
I527
sVpull
p1109
I528
sVrush
p1110
I529
sVmonopoly
p1111
I530
sVnearest
p1112
I2563
sVrags
p1113
I531
sVsnowshoes
p1114
I5134
sVdirty
p1115
I532
sVdispensing
p1116
I5136
sVtorso
p1117
I5137
sVage
p1118
I4110
sVrust
p1119
I533
sVdarker
p1120
I5138
sVdetailed
p1121
I3280
sVgone
p1122
I5140
sVcarves
p1123
I5141
sVflowerpot
p1124
I5014
sVad
p1125
I5143
sVaf
p1126
I5144
sVexhausted
p1127
I3287
sVcertain
p1128
I3290
sVaccents
p1129
I3292
sVam
p1130
I5145
sVal
p1131
I5146
sVwatches
p1132
I535
sVan
p1133
I5147
sVtshirt
p1134
I3311
sVar
p1135
I3312
sVcarved
p1136
I3313
sVwalks
p1137
I5765
sVwatched
p1138
I537
sVtranquil
p1139
I538
sVadmiring
p1140
I539
sVcoconut
p1141
I7319
sVcream
p1142
I540
sVcollie
p1143
I5150
sVyoga
p1144
I541
sVgraduate
p1145
I5151
sVtight
p1146
I542
sVbeverage
p1147
I842
sVsomeones
p1148
I5153
sVpuppy
p1149
I543
sVelvis
p1150
I1579
sVmotorcyclists
p1151
I5154
sVdented
p1152
I5155
sVbeaks
p1153
I5884
sVwaving
p1154
I544
sVherbs
p1155
I5157
sVtricky
p1156
I545
sVtricks
p1157
I546
sVgroom
p1158
I5160
sVmask
p1159
I547
sVdyed
p1160
I548
sVhaving
p1161
I844
sVmast
p1162
I549
sVmass
p1163
I550
sVoriginal
p1164
I3393
sVgingham
p1165
I552
sVmotocross
p1166
I5161
sVbirdcage
p1167
I553
sVbeware
p1168
I554
sVceramic
p1169
I555
sVdebris
p1170
I556
sVtours
p1171
I5162
sVcareful
p1172
I3882
sVhunting
p1173
I3420
sVtv
p1174
I558
sVtp
p1175
I559
sVto
p1176
I560
sVtail
p1177
I561
sVchewing
p1178
I562
sVth
p1179
I563
sVdressing
p1180
I5163
sVsmile
p1181
I5276
sVte
p1182
I564
sVunfurnished
p1183
I5164
sVroadway
p1184
I565
sVcase
p1185
I3885
sVreturned
p1186
I3446
sVpuzzled
p1187
I5165
sVtrailing
p1188
I4527
sVkiwis
p1189
I2297
sVcondition
p1190
I5167
sVenjoyable
p1191
I7289
sVcable
p1192
I567
sVlaying
p1193
I5168
sVjoined
p1194
I569
sVlarge
p1195
I570
sVdinosaur
p1196
I5169
sVprosciutto
p1197
I1598
sVadjust
p1198
I3484
sVharry
p1199
I572
sVsmall
p1200
I573
sVhumongous
p1201
I5170
sVcupping
p1202
I3888
sVpast
p1203
I575
sVcarriages
p1204
I3520
sVdisplays
p1205
I576
sVpass
p1206
I577
sVsituated
p1207
I5171
sVcrests
p1208
I579
sVtrick
p1209
I580
sVcontrails
p1210
I581
sVsideboard
p1211
I5302
sVclock
p1212
I582
sVsection
p1213
I5173
sVburgundy
p1214
I5174
sVnurse
p1215
I5175
sVcontrast
p1216
I5176
sVrevealing
p1217
I5177
sVfull
p1218
I583
sVhash
p1219
I584
sVdiapers
p1220
I585
sVhours
p1221
I5178
sVfrumpled
p1222
I586
sVcivilians
p1223
I587
sVthumbsup
p1224
I589
sVmound
p1225
I5179
sVexperience
p1226
I591
sVpics
p1227
I5181
sVprior
p1228
I592
sVhamster
p1229
I5182
sVmadeup
p1230
I593
sVpick
p1231
I5183
sVaction
p1232
I5184
sVpinstripe
p1233
I3488
sVvia
p1234
I5185
sVfollowed
p1235
I3610
sVadidas
p1236
I595
sVvie
p1237
I5186
sVstrolling
p1238
I5187
sVindoors
p1239
I5190
sVpulls
p1240
I596
sVridding
p1241
I5191
sVpoodle
p1242
I5192
sVpears
p1243
I597
sVpearl
p1244
I598
sVunrecognizable
p1245
I599
sVpitching
p1246
I5193
sVgorgeous
p1247
I600
sVblinders
p1248
I2301
sVrefueling
p1249
I5194
sVmore
p1250
I601
sVteen
p1251
I5195
sVdoor
p1252
I602
sValcove
p1253
I5196
sVsignpost
p1254
I5763
sVcompany
p1255
I603
sVpossession
p1256
I5198
sVcookbooks
p1257
I2302
sVriverbank
p1258
I5199
sVkeeping
p1259
I5201
sVklm
p1260
I3709
sVinstalling
p1261
I606
sVmall
p1262
I5204
sVlearn
p1263
I607
sVknocked
p1264
I608
sVseagull
p1265
I609
sVmale
p1266
I3720
sVbeautiful
p1267
I5207
sVgallop
p1268
I5208
sVcampsite
p1269
I6263
sVbidet
p1270
I610
sVneglected
p1271
I5209
sVaccept
p1272
I5210
sVfiving
p1273
I5211
sVstates
p1274
I5212
sVgallon
p1275
I5213
sVdress
p1276
I5214
sVtapestry
p1277
I5215
sVinformation
p1278
I5216
sVrespective
p1279
I612
sVspeedboat
p1280
I613
sVglowing
p1281
I614
sVfreshly
p1282
I3763
sVhugs
p1283
I616
sVbrowns
p1284
I3769
sVunattended
p1285
I5217
sVcreature
p1286
I5219
sVplant
p1287
I5220
sVbannanas
p1288
I92
sVcountryside
p1289
I5222
sVnetted
p1290
I7611
sVfluffed
p1291
I619
sVwaves
p1292
I620
sVbackyard
p1293
I5224
sVauthentic
p1294
I3795
sVplank
p1295
I3796
sVrefuse
p1296
I621
sVresemble
p1297
I622
sVtwisting
p1298
I623
sVhauling
p1299
I5226
sVvolleyball
p1300
I624
sVwrench
p1301
I5227
sVovercooked
p1302
I625
sVtrellis
p1303
I626
sVpatio
p1304
I5228
sVpans
p1305
I5229
sVwooly
p1306
I627
sVadorned
p1307
I628
sVmexican
p1308
I5230
sVith
p1309
I3835
sVpant
p1310
I5231
sVlocking
p1311
I5232
sVtrade
p1312
I5233
sVstylus
p1313
I630
sVpaper
p1314
I631
sVbrim
p1315
I632
sVsigns
p1316
I633
sVbroadway
p1317
I3851
sVsmiling
p1318
I634
sVits
p1319
I5235
sVroots
p1320
I635
sVlaced
p1321
I636
sVlicks
p1322
I5236
sVrapidly
p1323
I5237
sVhouseplant
p1324
I5238
sVlaces
p1325
I638
sVtravelling
p1326
I5241
sVlegos
p1327
I3144
sVsauce
p1328
I639
sVally
p1329
I5242
sVtoiletry
p1330
I641
sVentire
p1331
I3145
sVgadget
p1332
I642
sVfrisbe
p1333
I643
sVfrisby
p1334
I644
sVsnowball
p1335
I5244
sVweeds
p1336
I645
sVweedy
p1337
I646
sVhotdogs
p1338
I5245
sVstreetside
p1339
I5246
sVlettuce
p1340
I2311
sValways
p1341
I5247
sVloosely
p1342
I5248
sVswimsuit
p1343
I5249
sVwarped
p1344
I2313
sVfound
p1345
I649
sVdisorganized
p1346
I5250
sVchipping
p1347
I650
sVlantern
p1348
I5251
sVbrunette
p1349
I651
sVengland
p1350
I5252
sVbends
p1351
I5253
sVrowboats
p1352
I5254
sVreduce
p1353
I3956
sVpolice
p1354
I2585
sVbouquets
p1355
I5255
sVblues
p1356
I5256
sVreally
p1357
I5257
sVdecoratively
p1358
I653
sVmissed
p1359
I5258
sVcandlelight
p1360
I3972
sVscoops
p1361
I655
sVmisses
p1362
I5259
sVstreaking
p1363
I5260
sVhangers
p1364
I5261
sVhighway
p1365
I5262
sVhandbags
p1366
I1894
sVdrifting
p1367
I5263
sVcalzone
p1368
I656
sVporcelain
p1369
I5264
sVcockpit
p1370
I4011
sVoutfitted
p1371
I657
sVrises
p1372
I4018
sVplowing
p1373
I658
sVpairs
p1374
I659
sVpersons
p1375
I3901
sVlego
p1376
I4657
sVw
p1377
I5265
sVbumper
p1378
I5266
sVcastle
p1379
I661
sVclump
p1380
I5267
sVmajor
p1381
I5268
sVhawks
p1382
I2316
sVnumber
p1383
I5269
sVfeeder
p1384
I662
sVslipper
p1385
I5270
sVgazes
p1386
I5271
sVironing
p1387
I5272
sVheads
p1388
I5273
sVguest
p1389
I3646
sVjet
p1390
I663
sVbenedict
p1391
I664
sVmoderately
p1392
I665
sVcheckpoint
p1393
I5274
sVtowel
p1394
I3924
sVfulled
p1395
I7360
sVsaint
p1396
I666
sVwarmly
p1397
I668
sVtomatos
p1398
I669
sVinterviewed
p1399
I670
sVtomatoe
p1400
I4131
sVcrop
p1401
I6010
sVfocusing
p1402
I5278
sVtheater
p1403
I671
sVstairs
p1404
I4595
sVgrace
p1405
I5279
sVobama
p1406
I5280
sVkreme
p1407
I4150
sVpear
p1408
I1657
sVtummy
p1409
I672
sVdetermined
p1410
I5282
sVemirates
p1411
I673
sVfishermen
p1412
I674
sVvideo
p1413
I867
sVtaxis
p1414
I2230
sVranch
p1415
I5285
sVrefrigerators
p1416
I5286
sVmossy
p1417
I675
sVpedestrian
p1418
I4182
sVgraffiti
p1419
I677
sVblond
p1420
I678
sVsell
p1421
I680
sVtough
p1422
I5927
sVodd
p1423
I1633
sVself
p1424
I681
sValso
p1425
I682
sVknobs
p1426
I683
sVbrace
p1427
I5288
sVrelief
p1428
I3909
sVplay
p1429
I5289
sVblackboard
p1430
I5290
sVswiftly
p1431
I5291
sVdarth
p1432
I684
sVplat
p1433
I5292
sVunused
p1434
I5293
sVdirtbike
p1435
I685
sVplan
p1436
I5294
sVaccepting
p1437
I686
sVcolliding
p1438
I4237
sVfoyer
p1439
I5296
sVcover
p1440
I5297
sVbarred
p1441
I687
sVartistic
p1442
I8231
sVdonkeys
p1443
I2339
sVbarrel
p1444
I689
sVdragged
p1445
I5767
sVwording
p1446
I691
sVgolf
p1447
I692
sVgirraffe
p1448
I5300
sVcruiser
p1449
I693
sVcruises
p1450
I694
sVblended
p1451
I695
sVhoisted
p1452
I1822
sVvader
p1453
I696
sVsession
p1454
I5301
sVfreight
p1455
I698
sVblender
p1456
I699
sVindicator
p1457
I7517
sVkeychain
p1458
I4297
sVstreetlights
p1459
I702
sVwrites
p1460
I703
sVclothesline
p1461
I704
sVgooey
p1462
I705
sVcondom
p1463
I5303
sVcaptures
p1464
I5304
sVtwins
p1465
I5481
sVcolumns
p1466
I707
sVgiants
p1467
I4316
sVbegins
p1468
I2323
sVdandelion
p1469
I5306
sVbeams
p1470
I4325
sVsunny
p1471
I709
sVpreparing
p1472
I5307
sVclosely
p1473
I5308
sVcompass
p1474
I710
sVbanner
p1475
I711
sVsleeve
p1476
I5309
sVpaddling
p1477
I5310
sVtabby
p1478
I4357
sVseperated
p1479
I712
sVcaramel
p1480
I713
sVwaling
p1481
I5483
sVtanker
p1482
I714
sVapproaching
p1483
I4378
sVmanger
p1484
I5312
sVset
p1485
I5313
sVnibble
p1486
I5315
sVsex
p1487
I5316
sVsee
p1488
I5317
sVsea
p1489
I5318
sVsips
p1490
I718
sVorigami
p1491
I5319
sVoutward
p1492
I5320
sVanalog
p1493
I719
sVshower
p1494
I720
sVmovie
p1495
I5322
sVcurrently
p1496
I4410
sVkneeling
p1497
I2472
sVpickup
p1498
I723
sVcaptured
p1499
I1352
sVcrosswalk
p1500
I5323
sVkneel
p1501
I5324
sVprepped
p1502
I5325
sVeurope
p1503
I5326
sVsparsely
p1504
I725
sVbuoys
p1505
I5327
sVuntouched
p1506
I726
sVdeath
p1507
I1606
sVinterface
p1508
I4444
sVlast
p1509
I727
sVbarely
p1510
I3988
sVconnection
p1511
I728
sVobjects
p1512
I4670
sVwhole
p1513
I5328
sVblaze
p1514
I5329
sVlanyard
p1515
I5330
sVpatty
p1516
I5331
sVload
p1517
I5332
sVloaf
p1518
I5333
sVpendulum
p1519
I5334
sVbell
p1520
I730
sVloan
p1521
I5335
sVforklift
p1522
I5336
sVcommunity
p1523
I5337
sVhollow
p1524
I5338
sVdimensional
p1525
I732
sVadjoining
p1526
I733
sVfrosty
p1527
I734
sVscottish
p1528
I5339
sVbelt
p1529
I737
sVsouffle
p1530
I738
sVdevil
p1531
I5340
sVfilth
p1532
I5341
sVconveyor
p1533
I5342
sVhitting
p1534
I5343
sVsuburbs
p1535
I740
sVextravagant
p1536
I741
sVfirm
p1537
I5344
sVresting
p1538
I742
sVsleeved
p1539
I1494
sVsquirrel
p1540
I743
sVfire
p1541
I5345
sVwheeler
p1542
I5346
sVracer
p1543
I744
sVraces
p1544
I745
sVsleeves
p1545
I5347
sVequestrians
p1546
I5348
sVtowns
p1547
I5349
sVwheeled
p1548
I5350
sVmlb
p1549
I5351
sVpresses
p1550
I748
sVhandling
p1551
I5352
sVcoveralls
p1552
I4551
sVcaged
p1553
I749
sVstraight
p1554
I4556
sVknacks
p1555
I5353
sVsesame
p1556
I5354
sVpressed
p1557
I751
sVleaning
p1558
I752
sVkissing
p1559
I4575
sVrobin
p1560
I4578
sVcages
p1561
I753
sVsecluded
p1562
I5356
sVpound
p1563
I8177
sVducky
p1564
I1738
sVbacking
p1565
I4585
sVcalculator
p1566
I6986
sVmotors
p1567
I754
sVducks
p1568
I1782
sVtriple
p1569
I4598
sVbeautifully
p1570
I5360
sVchase
p1571
I4609
sVfunny
p1572
I5361
sVdecor
p1573
I5362
sVelevated
p1574
I5363
sVshorter
p1575
I5364
sVrules
p1576
I1610
sVpecking
p1577
I5365
sVcaptioned
p1578
I4632
sVknitting
p1579
I756
sVsnail
p1580
I5366
sVflooded
p1581
I757
sVcigar
p1582
I5367
sValert
p1583
I758
sVviewing
p1584
I5369
sVlevels
p1585
I5370
sVcucumber
p1586
I4650
sVstack
p1587
I5372
sVinfamous
p1588
I759
sVeuro
p1589
I5491
sVcanned
p1590
I5374
sVpicks
p1591
I7214
sVperson
p1592
I4675
sVseethrough
p1593
I4676
sVcabins
p1594
I763
sVcheddar
p1595
I764
sVstunt
p1596
I1614
sVdoily
p1597
I766
sVforrest
p1598
I767
sVdrizzled
p1599
I769
sVsandal
p1600
I5378
sVgoblet
p1601
I770
sVhued
p1602
I5379
sVadvertisements
p1603
I771
sVhoody
p1604
I5380
sVsignals
p1605
I4780
sVeager
p1606
I3060
sVgrapefruit
p1607
I5382
sVparents
p1608
I773
sVlocation
p1609
I5383
sVsydney
p1610
I774
sVfurniture
p1611
I3923
sVsurprised
p1612
I5385
sVharvesting
p1613
I776
sVjutting
p1614
I4759
sVclutches
p1615
I5387
sVemergency
p1616
I778
sVskateboards
p1617
I2065
sVclutched
p1618
I5389
sVprivate
p1619
I780
sVfalcon
p1620
I4769
sVprojects
p1621
I4773
sVformal
p1622
I782
sVsightseeing
p1623
I811
sVsorting
p1624
I783
sVd
p1625
I784
sVmarquee
p1626
I785
sVindividuals
p1627
I5240
sVscape
p1628
I786
sVstylish
p1629
I4132
sVspins
p1630
I787
sVlimo
p1631
I788
sVcarryon
p1632
I4812
sVclipping
p1633
I789
sVspring
p1634
I791
sVsighn
p1635
I5397
sVgreeting
p1636
I1615
sVlimb
p1637
I793
sVbouncy
p1638
I794
sVpalm
p1639
I795
sVsight
p1640
I5398
sVcurious
p1641
I796
sVsprint
p1642
I797
sVpale
p1643
I798
sVstables
p1644
I5401
sVnovelty
p1645
I799
sVtye
p1646
I5403
sVtemple
p1647
I5404
sVt
p1648
I4956
sVbe
p1649
I5405
sVvarying
p1650
I7545
sVobscures
p1651
I801
sVbi
p1652
I4862
sVforming
p1653
I4818
sVgarnishment
p1654
I802
sVnowhere
p1655
I5406
sVsanta
p1656
I5407
sVrainbowcolored
p1657
I5408
sVobscured
p1658
I803
sVby
p1659
I5410
sVwildlife
p1660
I5412
sVanything
p1661
I5413
sVwhiteboard
p1662
I4884
sVwrinkles
p1663
I805
sVfrisbie
p1664
I806
sVwrinkled
p1665
I807
sVcanning
p1666
I808
sVrepair
p1667
I5415
sVclinton
p1668
I809
sVgarbage
p1669
I5417
sVinto
p1670
I810
sVservers
p1671
I4918
sVappropriate
p1672
I5418
sVsized
p1673
I6835
sVinspects
p1674
I4933
sVspan
p1675
I812
sVharnessed
p1676
I813
sVretrieving
p1677
I5420
sVspending
p1678
I4945
sVapartments
p1679
I815
sVsock
p1680
I816
sVsneaks
p1681
I5422
sVcustom
p1682
I5423
sVharnesses
p1683
I817
sVsuit
p1684
I818
sVmounting
p1685
I5425
sVopens
p1686
I819
sVinches
p1687
I4983
sVjewish
p1688
I5426
sVposter
p1689
I821
sVrelaxed
p1690
I5427
sVbuttery
p1691
I5428
sVpastor
p1692
I5429
sVlink
p1693
I5430
sVcompetition
p1694
I5431
sVline
p1695
I5432
sVrelaxes
p1696
I5433
sVposted
p1697
I823
sVup
p1698
I824
sVhorned
p1699
I5434
sVcorsage
p1700
I5435
sVpaired
p1701
I825
sVun
p1702
I5025
sVmature
p1703
I5436
sVfaded
p1704
I826
sVconsumed
p1705
I5749
sVaerial
p1706
I6823
sVlabrador
p1707
I5437
sVm
p1708
I2351
sVpepperonis
p1709
I827
sVcoasting
p1710
I5438
sVdiverse
p1711
I5064
sVchat
p1712
I829
sVsurveying
p1713
I830
sVsunken
p1714
I5074
sVfixing
p1715
I831
sVgirrafe
p1716
I5440
sVpoints
p1717
I7023
sVactors
p1718
I5441
sVparakeet
p1719
I3540
sVswirl
p1720
I5442
sVcamo
p1721
I6843
sVsails
p1722
I5443
sVtart
p1723
I5444
sVelements
p1724
I5445
sVscrub
p1725
I5446
sVfreez
p1726
I3932
sVmediumsized
p1727
I5447
sVsided
p1728
I5448
sVcobblestone
p1729
I5449
sVferries
p1730
I835
sVmeals
p1731
I5452
sVago
p1732
I5453
sVfurthest
p1733
I5129
sVlane
p1734
I836
sVland
p1735
I837
sVfighter
p1736
I5131
sVovertop
p1737
I5455
sVpedestrians
p1738
I839
sVnapping
p1739
I5456
sVholes
p1740
I840
sVwalked
p1741
I5457
sVsatellite
p1742
I3597
sVsummit
p1743
I5458
sVcame
p1744
I132
sVcrinkle
p1745
I843
sVwalker
p1746
I5459
sVfresh
p1747
I5158
sVhello
p1748
I5461
sVcheetos
p1749
I845
sVamish
p1750
I846
sVpartial
p1751
I7982
sVsharply
p1752
I5504
sVsquats
p1753
I5463
sVscratch
p1754
I847
sVsplashing
p1755
I848
sVillustrated
p1756
I5464
sVchillin
p1757
I5172
sVcenters
p1758
I5466
sVnypd
p1759
I3172
sVwindowsill
p1760
I850
sVglows
p1761
I5180
sVconcerned
p1762
I5467
sVyoung
p1763
I5189
sVsend
p1764
I5468
sVoutwards
p1765
I5469
sVbuddha
p1766
I3935
sVindicating
p1767
I5205
sVpens
p1768
I7578
sVstocked
p1769
I853
sVgarden
p1770
I5471
sVpanting
p1771
I854
sVcontinues
p1772
I5472
sVmanipulated
p1773
I5394
sVllama
p1774
I5473
sVmixing
p1775
I855
sVanimals
p1776
I5509
sVdecorating
p1777
I856
sVwipe
p1778
I5239
sVshetland
p1779
I5243
sVharbor
p1780
I859
sVeva
p1781
I860
sVtry
p1782
I861
sVrace
p1783
I863
sVdisheveled
p1784
I864
sVrack
p1785
I865
sVcrook
p1786
I866
sVhyde
p1787
I5283
sVenclosed
p1788
I5476
sVwheat
p1789
I868
sVspaghetti
p1790
I5287
sVtwine
p1791
I5478
sVboutonniere
p1792
I869
sVsauerkraut
p1793
I2061
sVapparatus
p1794
I5479
sVflannel
p1795
I1931
sVsweaty
p1796
I870
sVindian
p1797
I5480
sVchickpeas
p1798
I2262
sVflowing
p1799
I871
sVbird
p1800
I5482
sVslabs
p1801
I5311
sVscenery
p1802
I5484
sVled
p1803
I5485
sVleg
p1804
I5486
sVlei
p1805
I5487
sVgathered
p1806
I5488
sVcrosslegged
p1807
I873
sVpunch
p1808
I874
sVdelivering
p1809
I5489
sVlet
p1810
I5490
sVbacksides
p1811
I5492
sVfifteen
p1812
I877
sVgreat
p1813
I5493
sVcasing
p1814
I878
sVreceive
p1815
I5495
sVinvolved
p1816
I5496
sVcasino
p1817
I5357
sVeatin
p1818
I5497
sVbuss
p1819
I4865
sVpopcorn
p1820
I2690
sVmakes
p1821
I880
sVmaker
p1822
I881
sVthats
p1823
I4538
sVmariners
p1824
I5390
sVnibbling
p1825
I886
sVtools
p1826
I5498
sVstanding
p1827
I5499
sVbazaar
p1828
I888
sVreeds
p1829
I5514
sVzip
p1830
I6304
sVchocolates
p1831
I5416
sVtheme
p1832
I4706
sVnext
p1833
I890
sVeleven
p1834
I891
sVduplicate
p1835
I5500
sVbonds
p1836
I6094
sVpencil
p1837
I892
sVbenz
p1838
I5515
sVon
p1839
I5501
sVcarrying
p1840
I5314
sVlabelled
p1841
I5503
sVrubbish
p1842
I893
sVbaby
p1843
I894
sVfillings
p1844
I3941
sVpieces
p1845
I5517
sVcasserole
p1846
I5505
sVcharity
p1847
I5506
sVcustomer
p1848
I896
sVdepiction
p1849
I5518
sVballs
p1850
I5508
sVpracticing
p1851
I897
sVthis
p1852
I5510
sVathlete
p1853
I5474
sVpour
p1854
I832
sVthin
p1855
I5511
sVdrill
p1856
I5512
sVscatter
p1857
I899
sVwedge
p1858
I900
sVslid
p1859
I901
sVbent
p1860
I5513
sVpawn
p1861
I1882
sVprocess
p1862
I902
sVlock
p1863
I903
sVbillboards
p1864
I904
sVslim
p1865
I905
sVrode
p1866
I906
sVpurposes
p1867
I5516
sVpromotional
p1868
I907
sVhigh
p1869
I5507
sVblvd
p1870
I5521
sVnears
p1871
I908
sVbend
p1872
I5520
sVslip
p1873
I909
sVpieced
p1874
I5519
sVrods
p1875
I910
sVpaws
p1876
I911
sVtrumpet
p1877
I5522
sVdocking
p1878
I5523
sVwares
p1879
I5525
sVlunchbox
p1880
I5549
sVanimal
p1881
I5527
sVnative
p1882
I1151
sVestablishment
p1883
I5528
sVclasping
p1884
I914
sVcontraption
p1885
I5529
sVyellowish
p1886
I5530
sVblocks
p1887
I5531
sVhalter
p1888
I5532
sVsingular
p1889
I637
sVawait
p1890
I5533
sVtied
p1891
I5534
sVdominos
p1892
I916
sVhitched
p1893
I5535
sVpigs
p1894
I3897
sVdemonstrating
p1895
I5537
sVfits
p1896
I918
sVties
p1897
I5539
sVcabbage
p1898
I5580
sVappetizer
p1899
I2364
sVracks
p1900
I5541
sVautograph
p1901
I5542
sVtomato
p1902
I920
sVboeing
p1903
I5543
sVcounter
p1904
I921
sVrobot
p1905
I922
sVallot
p1906
I5544
sVallow
p1907
I5545
sVclassy
p1908
I923
sVvolunteers
p1909
I5546
sVantelope
p1910
I924
sVholds
p1911
I925
sVthigh
p1912
I926
sVmove
p1913
I4204
sVspatula
p1914
I927
sVartichoke
p1915
I5635
sVbrahma
p1916
I929
sVperfect
p1917
I931
sVdecal
p1918
I934
sVinstruments
p1919
I5551
sVderelict
p1920
I5552
sVwildebeests
p1921
I3948
sV2013
p1922
I5667
sV2012
p1923
I935
sVdesigns
p1924
I5553
sVknick
p1925
I5554
sVoutlined
p1926
I936
sVdock
p1927
I937
sVsnake
p1928
I938
sVkiss
p1929
I5555
sVcage
p1930
I5556
sVtransparent
p1931
I5557
sVpresidential
p1932
I939
sVminimalist
p1933
I940
sVgreens
p1934
I4714
sVglassed
p1935
I941
sVscenic
p1936
I942
sVsniffing
p1937
I943
sVmerge
p1938
I5558
sVaccompanied
p1939
I5721
sVbeneath
p1940
I5560
sVstock
p1941
I944
sVglasses
p1942
I945
sVmets
p1943
I946
sVbeginner
p1944
I5562
sVtents
p1945
I947
sVbump
p1946
I948
sVflanking
p1947
I3187
sVbooks
p1948
I949
sVthirteen
p1949
I5563
sVbay
p1950
I2940
sVwander
p1951
I5752
sVbunched
p1952
I5564
sVvalve
p1953
I5760
sVbunches
p1954
I5566
sVoblong
p1955
I5567
sVshut
p1956
I5568
sVwallpaper
p1957
I5569
sVyawns
p1958
I5570
sVban
p1959
I7045
sVgraze
p1960
I951
sVluggages
p1961
I952
sVsteering
p1962
I5572
sVchilli
p1963
I954
sVspill
p1964
I5803
sVcould
p1965
I956
sVchilly
p1966
I957
sVlength
p1967
I958
sVnotebook
p1968
I5536
sVpudding
p1969
I5355
sVmotorbikes
p1970
I959
sVscarf
p1971
I5830
sVlettering
p1972
I2373
sVpines
p1973
I5576
sVyells
p1974
I960
sVtouring
p1975
I6623
sVautographed
p1976
I5845
sVstraining
p1977
I5578
sVtier
p1978
I5538
sVowner
p1979
I5579
sVblows
p1980
I5855
sVhawk
p1981
I919
sVstart
p1982
I1639
sVordering
p1983
I5865
sVdetailing
p1984
I5582
sVsystem
p1985
I1395
sVdecorations
p1986
I5583
sVgraffitied
p1987
I5881
sVgrated
p1988
I964
sVenforcement
p1989
I965
sVgummy
p1990
I966
sVaccompany
p1991
I5584
sVstars
p1992
I1641
sVshorts
p1993
I8509
sVunoccupied
p1994
I5585
sVrotunda
p1995
I5586
sVfirehydrant
p1996
I5587
sVUNK
p1997
I9218
sVsteel
p1998
I5588
sVcolleagues
p1999
I5589
sVtrike
p2000
I971
sVsplayed
p2001
I972
sVappealing
p2002
I5590
sVsteet
p2003
I5592
sVsteep
p2004
I5593
sVsteer
p2005
I5594
sVcollecting
p2006
I973
sVviewer
p2007
I5596
sVdeodorant
p2008
I5597
sVgently
p2009
I974
sVspelled
p2010
I5598
sVgentle
p2011
I975
sVcarraige
p2012
I976
sVclearly
p2013
I5600
sVviewed
p2014
I5601
sVjug
p2015
I5602
sVnecessities
p2016
I5603
sVdepict
p2017
I5955
sVlivingroom
p2018
I5956
sVdishes
p2019
I978
sVstudying
p2020
I5605
sVmills
p2021
I981
sVmechanism
p2022
I5606
sVwaffles
p2023
I982
sVdemolished
p2024
I5607
sVastride
p2025
I983
sVashore
p2026
I5975
sVkorean
p2027
I984
sVscooping
p2028
I5980
sVsoap
p2029
I5608
sVsoar
p2030
I5609
sVfreestanding
p2031
I5989
sVpetals
p2032
I986
sVdevice
p2033
I5611
sVvultures
p2034
I6002
sVcabinet
p2035
I3782
sVmedal
p2036
I5612
sVsocializing
p2037
I5613
sVbred
p2038
I988
sVthanksgiving
p2039
I989
sVface
p2040
I990
sVmustache
p2041
I991
sVmechanical
p2042
I6024
sVpainting
p2043
I992
sVatmosphere
p2044
I5614
sVremodel
p2045
I6534
sVshirted
p2046
I3863
sVwoolly
p2047
I993
sVbring
p2048
I994
sVbiker
p2049
I5618
sVbikes
p2050
I5619
sVmanchester
p2051
I5620
sVgreenhouse
p2052
I995
sVbedroom
p2053
I5621
sVrough
p2054
I5622
sVtaps
p2055
I996
sVpause
p2056
I6057
sVplanter
p2057
I5624
sVjay
p2058
I997
sVhops
p2059
I5625
sVjar
p2060
I998
sVshould
p2061
I999
sVbuttons
p2062
I6072
sVplanted
p2063
I5626
sVtape
p2064
I1002
sVriding
p2065
I1003
sVbourbon
p2066
I5627
sVhope
p2067
I5628
sVmeant
p2068
I4885
sVhandle
p2069
I6346
sVmeans
p2070
I1006
sVfamiliar
p2071
I5630
sVlucky
p2072
I3629
sVshaves
p2073
I5631
sVhoses
p2074
I6126
sVvying
p2075
I1010
sVstuff
p2076
I1011
sVstreamlined
p2077
I5633
sVbasking
p2078
I1012
sVrapped
p2079
I1013
sVhandstand
p2080
I5634
sVdirects
p2081
I928
sVbucket
p2082
I6312
sVframe
p2083
I1014
sVcrayons
p2084
I2380
sVpacket
p2085
I1015
sVslanted
p2086
I5637
sVskateboarding
p2087
I1016
sVpacked
p2088
I7010
sVwire
p2089
I5638
sVinteracting
p2090
I5639
sVamtrak
p2091
I5640
sVkrispy
p2092
I4074
sVcloudless
p2093
I6202
sVemail
p2094
I5641
sVends
p2095
I1018
sVscrolls
p2096
I5642
sVbridges
p2097
I1019
sVfancily
p2098
I5643
sVbuffalos
p2099
I1020
sVbutts
p2100
I6218
sVcourtyard
p2101
I5644
sVtented
p2102
I1021
sVstaring
p2103
I1022
sVdrum
p2104
I5645
sVramp
p2105
I5646
sVrams
p2106
I6242
sVetc
p2107
I6245
sVsugared
p2108
I5647
sVhauls
p2109
I5648
sVvolley
p2110
I5649
sVchest
p2111
I7018
sVadjusted
p2112
I6259
sVco
p2113
I5651
sVca
p2114
I5652
sVsnowfall
p2115
I1025
sVcd
p2116
I5653
sVarugula
p2117
I5654
sVcrafted
p2118
I5655
sVairfield
p2119
I3917
sVoakland
p2120
I6277
sVct
p2121
I5656
sVpowered
p2122
I5657
sVgondola
p2123
I6875
sVpoured
p2124
I3013
sVwindsurfs
p2125
I6302
sVchalkboard
p2126
I6303
sVutilizing
p2127
I6308
sVwaste
p2128
I5660
sVcommuter
p2129
I1029
sVroasting
p2130
I5661
sVgraphics
p2131
I6340
sVatlanta
p2132
I5662
sVtoasting
p2133
I1031
sVlaser
p2134
I5663
sVtoiled
p2135
I5664
sVcoals
p2136
I6354
sVrunway
p2137
I6356
sVgrinning
p2138
I5666
sVrigged
p2139
I5669
sVultra
p2140
I1033
sVstuffing
p2141
I1034
sVripe
p2142
I5670
sVlush
p2143
I5671
sVsite
p2144
I1035
sVhardware
p2145
I1036
sVvw
p2146
I1037
sVsits
p2147
I6392
sVtattoo
p2148
I1039
sVmoves
p2149
I1040
sVoldfashioned
p2150
I1041
sVhighlighted
p2151
I5672
sVapricots
p2152
I5673
sVdigging
p2153
I6412
sVglaring
p2154
I5675
sVball
p2155
I5677
sVdusk
p2156
I5678
sVbale
p2157
I5679
sVbald
p2158
I5680
sVupon
p2159
I6433
sVcoffe
p2160
I1045
sVsurfboarding
p2161
I5681
sVpaving
p2162
I5682
sVrobotic
p2163
I5683
sVdust
p2164
I5684
sVoveralls
p2165
I5685
sVafghan
p2166
I5686
sVcolts
p2167
I1046
sVbroccoli
p2168
I5687
sVmosaic
p2169
I5688
sVofa
p2170
I1047
sVoff
p2171
I1048
sVshacks
p2172
I6459
sVovercast
p2173
I5709
sVpatterns
p2174
I1049
sV350
p2175
I1050
sVaudio
p2176
I1051
sVmountainous
p2177
I977
sVnewest
p2178
I1052
sVbananas
p2179
I5689
sVless
p2180
I6484
sVgulls
p2181
I5690
sVclocks
p2182
I1054
sVrooms
p2183
I6496
sVhauled
p2184
I5691
sVpaul
p2185
I5692
sVglue
p2186
I5693
sVunplugged
p2187
I5694
sVweb
p2188
I1056
sVwed
p2189
I1057
sVresidential
p2190
I5695
sVengage
p2191
I5494
sVlattice
p2192
I2658
sVcosmetics
p2193
I5698
sVcombing
p2194
I5699
sVcrack
p2195
I6517
sVgovernment
p2196
I1061
sVchecking
p2197
I1062
sVhaul
p2198
I5700
sVfive
p2199
I5701
sVdesk
p2200
I5702
sVblindfolded
p2201
I3203
sVloader
p2202
I8172
sVpier
p2203
I1063
sVpies
p2204
I1064
sVcrisp
p2205
I5703
sVonion
p2206
I5704
sVcriss
p2207
I5705
sVsleds
p2208
I5706
sVgarage
p2209
I5707
sVbecome
p2210
I1068
sVparagliding
p2211
I5708
sVgaining
p2212
I6331
sVballon
p2213
I6581
sVsuites
p2214
I1654
sVdaylight
p2215
I1070
sValmonds
p2216
I5711
sVchoosing
p2217
I1071
sVflush
p2218
I1072
sVtasting
p2219
I814
sVhumming
p2220
I1073
sVtransport
p2221
I5712
sVhipsters
p2222
I1074
sVwallmounted
p2223
I5713
sVavoid
p2224
I5714
sVmotorcylce
p2225
I3968
sVfedex
p2226
I5715
sVmementos
p2227
I1076
sVdoes
p2228
I5716
sVsaucepan
p2229
I1077
sVrailing
p2230
I5717
sVblurry
p2231
I6627
sVstairway
p2232
I5719
sVblowing
p2233
I1078
sVpomeranian
p2234
I1079
sVselecting
p2235
I1080
sVpressure
p2236
I1083
sVcordless
p2237
I3969
sVhiding
p2238
I9111
sVsister
p2239
I5723
sVpeal
p2240
I1084
sVangeles
p2241
I8876
sVchrome
p2242
I4744
sVseeds
p2243
I5725
sVconcession
p2244
I5726
sVswimming
p2245
I1085
sVletters
p2246
I1086
sVparsley
p2247
I2395
sVscones
p2248
I1087
sVtiny
p2249
I2396
sVroads
p2250
I5729
sVswimmers
p2251
I5730
sVbrownies
p2252
I1088
sVhousing
p2253
I5731
sVspots
p2254
I5732
sVdoing
p2255
I7946
sVstartled
p2256
I4746
sVbulidings
p2257
I1090
sVcatamaran
p2258
I5225
sVfunction
p2259
I5733
sVfunnel
p2260
I5734
sVdelivery
p2261
I5735
sVconstruction
p2262
I5736
sVgrate
p2263
I5737
sVdelivers
p2264
I5738
sVleashed
p2265
I1093
sVcompute
p2266
I6773
sVplaces
p2267
I1095
sVchained
p2268
I6775
sVofficial
p2269
I5740
sVsmooth
p2270
I5741
sVvolvo
p2271
I5742
sVexcitement
p2272
I1096
sVharvested
p2273
I5743
sVtosses
p2274
I1098
sVleashes
p2275
I1099
sVmonument
p2276
I5744
sVproblem
p2277
I1100
sVinformational
p2278
I5745
sVqantas
p2279
I3974
sVbearing
p2280
I5746
sVirish
p2281
I1101
sVint
p2282
I6795
sVrubble
p2283
I4971
sVslowing
p2284
I5748
sVsibling
p2285
I1103
sVinn
p2286
I1104
sVreplica
p2287
I5750
sVink
p2288
I6802
sVina
p2289
I1105
sVcompared
p2290
I1106
sVvariety
p2291
I5751
sVdetails
p2292
I1107
sVillusion
p2293
I7216
sVponytail
p2294
I1108
sVfrisbee
p2295
I6837
sVfootprints
p2296
I5753
sVchance
p2297
I5755
sVveil
p2298
I1110
sVvein
p2299
I1111
sVdolphins
p2300
I8446
sVghost
p2301
I8884
sVhedges
p2302
I1113
sVlift
p2303
I4752
sVcompete
p2304
I1115
sVrural
p2305
I5758
sVgardens
p2306
I1116
sVbuoy
p2307
I5759
sVmagnetic
p2308
I1117
sVcrumpled
p2309
I3976
sVnursery
p2310
I1118
sVmansion
p2311
I1119
sVworked
p2312
I182
sVcreamcolored
p2313
I5764
sVbike
p2314
I1120
sVbooties
p2315
I1121
sVregal
p2316
I1122
sVmessenger
p2317
I3217
sVlack
p2318
I8691
sVblanket
p2319
I5766
sVpenny
p2320
I5768
sVshoot
p2321
I2519
sVcloseup
p2322
I6954
sVwagons
p2323
I5769
sVtagging
p2324
I1123
sVchapel
p2325
I5770
sVtickets
p2326
I5771
sVhisher
p2327
I6967
sVwhisk
p2328
I5772
sVarrayed
p2329
I3140
sVurinating
p2330
I1884
sVpoppy
p2331
I5775
sVtriumph
p2332
I1126
sVchew
p2333
I6994
sVpaperback
p2334
I5776
sVphones
p2335
I5777
sVhorn
p2336
I1127
sVchef
p2337
I7009
sVhors
p2338
I1128
sVplacemats
p2339
I7013
sVlacy
p2340
I5778
sVplanters
p2341
I7017
sVmachines
p2342
I1130
sVnear
p2343
I5779
sVabove
p2344
I7035
sVtoll
p2345
I5781
sVzoomed
p2346
I1132
sVceilings
p2347
I2409
sVconsisting
p2348
I5782
sVcounters
p2349
I5783
sVsimultaneously
p2350
I5784
sVsinks
p2351
I5785
sVfestive
p2352
I7050
sVwrapping
p2353
I5786
sVprotection
p2354
I1134
sVpursuit
p2355
I5788
sVtextured
p2356
I5789
sVcubical
p2357
I5790
sVcelebration
p2358
I5791
sVwatermelons
p2359
I1135
sVtoped
p2360
I2410
sVdaughter
p2361
I1136
sVitems
p2362
I1137
sVstudy
p2363
I1674
sVwalkin
p2364
I1437
sVsmoke
p2365
I5793
sVbrowsing
p2366
I1138
sVcalculators
p2367
I768
sVwalkie
p2368
I7100
sVriverboat
p2369
I5794
sVsecure
p2370
I5795
sVinfield
p2371
I1139
sVangrily
p2372
I5796
sVhighly
p2373
I1140
sVlavatory
p2374
I1141
sVblueandwhite
p2375
I1142
sVatrium
p2376
I5797
sVbra
p2377
I1143
sVplot
p2378
I1144
sVplow
p2379
I1145
sValligator
p2380
I1146
sVsweater
p2381
I1147
sVcoins
p2382
I1148
sVbundles
p2383
I1149
sVnegative
p2384
I1150
sVnintendo
p2385
I6877
sVknoll
p2386
I5798
sVindiana
p2387
I5799
sVbundled
p2388
I7143
sVblueberry
p2389
I4806
sVseparated
p2390
I1152
sVscary
p2391
I667
sVaward
p2392
I1155
sVpierced
p2393
I5801
sVbackwards
p2394
I3223
sVseparates
p2395
I1157
sVyard
p2396
I3224
sVdolphin
p2397
I3440
sVblocking
p2398
I1158
sVword
p2399
I7187
sVcrest
p2400
I3989
sVwork
p2401
I7202
sVwelldressed
p2402
I1160
sVworn
p2403
I5805
sVcuddle
p2404
I1161
sVera
p2405
I1162
sVmechanic
p2406
I5806
sVblooming
p2407
I5807
sVelbow
p2408
I1163
sVcrackers
p2409
I7208
sVvolkswagon
p2410
I5809
sVpiers
p2411
I5810
sVcans
p2412
I2416
sVindicated
p2413
I1164
sVnozzle
p2414
I1165
sVindia
p2415
I5812
sVmotocycle
p2416
I1166
sVindicates
p2417
I1167
sVveggies
p2418
I7236
sVbasebal
p2419
I1169
sVindifferent
p2420
I5815
sVacrobatic
p2421
I1170
sVcarriers
p2422
I1171
sVprovide
p2423
I1172
sVcrumbs
p2424
I3464
sVegyptian
p2425
I3992
sVnuts
p2426
I1173
sVfondant
p2427
I1174
sVboats
p2428
I5817
sVordinary
p2429
I5818
sVbeach
p2430
I1176
sVpizza
p2431
I1177
sVlad
p2432
I8781
sVladder
p2433
I1178
sVearlier
p2434
I1179
sVhosing
p2435
I5821
sVmovable
p2436
I515
sVlab
p2437
I5822
sVlay
p2438
I5823
sVlaw
p2439
I5824
sVarch
p2440
I1181
sVheaddress
p2441
I7311
sVlas
p2442
I5825
sVgreet
p2443
I5826
sVgreek
p2444
I5827
sVsons
p2445
I5828
sVgreen
p2446
I5829
sVwaitress
p2447
I1956
sVambulance
p2448
I5831
sVmake
p2449
I5833
sVsalon
p2450
I1184
sVpopsicle
p2451
I1186
sVoffice
p2452
I5834
sVmuffin
p2453
I5835
sVjapan
p2454
I1187
sVnets
p2455
I1188
sVbubbles
p2456
I8713
sVsomewhere
p2457
I5837
sVhighlights
p2458
I1189
sVblown
p2459
I5838
sVavocado
p2460
I1190
sVproduction
p2461
I1191
sVcarton
p2462
I1192
sVshear
p2463
I6895
sVthen
p2464
I5840
sVcoffee
p2465
I1193
sVthee
p2466
I5842
sVsafe
p2467
I1194
sVcollide
p2468
I1195
sVscene
p2469
I961
sVwellorganized
p2470
I77
sVband
p2471
I1196
sVgiraffe
p2472
I5843
sVsack
p2473
I3229
sVthey
p2474
I5844
sVjesus
p2475
I5577
sVther
p2476
I5846
sVbank
p2477
I3395
sVbread
p2478
I5847
sVcrock
p2479
I1197
sVspigot
p2480
I1198
sVascends
p2481
I1199
sVl
p2482
I1200
sVrocks
p2483
I1201
sVdingy
p2484
I1202
sVembankment
p2485
I5849
sVflyers
p2486
I1203
sVpuppet
p2487
I3798
sVfeeds
p2488
I1205
sVcornbread
p2489
I7456
sVlifted
p2490
I1206
sVkneels
p2491
I7464
sVlogs
p2492
I1207
sVdumping
p2493
I1208
sVtrain
p2494
I1209
sVsled
p2495
I1210
sVreached
p2496
I3231
sVlogo
p2497
I229
sVflock
p2498
I5853
sVrecognizable
p2499
I5854
sVmotorized
p2500
I1212
sVslew
p2501
I1213
sVsprints
p2502
I1214
sVnetwork
p2503
I5856
sVcameras
p2504
I5857
sVhooked
p2505
I1215
sVforty
p2506
I5859
sVtrainers
p2507
I1216
sVmedicine
p2508
I2606
sVunkempt
p2509
I8904
sVsnowcovered
p2510
I1217
sVforth
p2511
I5861
sVsliding
p2512
I5862
sVbarrier
p2513
I1218
sVleftovers
p2514
I1219
sVstandard
p2515
I1220
sVcarried
p2516
I4500
sVlollipop
p2517
I1221
sVshrubbery
p2518
I1222
sVbaseman
p2519
I1223
sVcreated
p2520
I1224
sVcreates
p2521
I1225
sVfestival
p2522
I962
sVlicked
p2523
I5866
sVwaterfall
p2524
I7097
sVchopped
p2525
I5867
sVchased
p2526
I1226
sVanother
p2527
I1227
sVdisembark
p2528
I1228
sVthick
p2529
I1229
sVtangle
p2530
I5871
sVelectronic
p2531
I1230
sVcooktop
p2532
I4765
sVdoge
p2533
I1231
sVelevator
p2534
I7613
sVplentiful
p2535
I5872
sVflagpole
p2536
I5873
sVairy
p2537
I5874
sVjohn
p2538
I1232
sVdogs
p2539
I1233
sVkiwi
p2540
I7631
sVemblem
p2541
I1234
sVhappily
p2542
I1235
sVreins
p2543
I3998
sVluncheon
p2544
I5875
sVcereal
p2545
I1236
sVchases
p2546
I384
sVtarget
p2547
I5877
sVtavern
p2548
I5878
sVhike
p2549
I5879
sVscenes
p2550
I1238
sVseated
p2551
I1239
sVhistorical
p2552
I1240
sVtipping
p2553
I7678
sVyoure
p2554
I8827
sVgiraffes
p2555
I1241
sVportraits
p2556
I1242
sVgiraffee
p2557
I1243
sVmanner
p2558
I5883
sVstalls
p2559
I1244
sVstomach
p2560
I967
sVcontents
p2561
I1245
sVnecktie
p2562
I1246
sVladen
p2563
I1247
sVconvenient
p2564
I1248
sVcasual
p2565
I6359
sVmaterials
p2566
I2434
sVbunkbed
p2567
I5886
sVluxury
p2568
I1250
sVforces
p2569
I5887
sVswims
p2570
I7740
sVcircles
p2571
I7744
sVgravy
p2572
I1251
sVdisembarking
p2573
I1252
sVboxcar
p2574
I7757
sVwhat
p2575
I5889
sVextending
p2576
I5890
sVinvolving
p2577
I1253
sVgermany
p2578
I1254
sVexercises
p2579
I7769
sVcorded
p2580
I5891
sVgrave
p2581
I1255
sVwebcam
p2582
I1256
sVsmoked
p2583
I7102
sVswamp
p2584
I1257
sVrickshaw
p2585
I969
sVfitted
p2586
I5892
sVmanhole
p2587
I970
sVmitten
p2588
I1258
sVbrief
p2589
I5894
sVchandelier
p2590
I5895
sVenjoyed
p2591
I1259
sVfisheye
p2592
I1260
sVtoast
p2593
I7826
sVforaging
p2594
I7694
sVpanned
p2595
I1262
sVcashews
p2596
I1263
sVgoalie
p2597
I5896
sVrectangle
p2598
I1264
sVdo
p2599
I5897
sVcappuccino
p2600
I1265
sVdj
p2601
I5898
sVhangings
p2602
I1268
sVdc
p2603
I5900
sVcardinals
p2604
I1269
sVfrowning
p2605
I5901
sVroundabout
p2606
I1270
sVonboard
p2607
I5902
sVdr
p2608
I5903
sVruns
p2609
I1271
sVcovering
p2610
I7888
sVscrubber
p2611
I1272
sVemo
p2612
I1273
sVgears
p2613
I1274
sVsquadron
p2614
I5905
sVsteal
p2615
I5906
sVsteam
p2616
I5907
sVcheerleader
p2617
I4304
sVsheering
p2618
I1275
sVobserves
p2619
I5908
sVlemonade
p2620
I5909
sVobserved
p2621
I5910
sVcattle
p2622
I1276
sVhairbrush
p2623
I1277
sVtechniques
p2624
I1278
sVbunting
p2625
I7933
sVpastel
p2626
I1279
sVdraws
p2627
I1280
sVsnoozing
p2628
I5913
sVsmoggy
p2629
I1281
sVpasted
p2630
I1282
sVaway
p2631
I1283
sVgentleman
p2632
I5914
sVswimwear
p2633
I5915
sVovergrown
p2634
I8475
sVunable
p2635
I7947
sVprops
p2636
I5916
sVdrawn
p2637
I1285
sVcrosscountry
p2638
I5917
sVshields
p2639
I1286
sVwe
p2640
I1287
sVhandful
p2641
I1289
sVpackaged
p2642
I5918
sVwi
p2643
I1290
sVconvertible
p2644
I1292
sVpackages
p2645
I5919
sVkitchen
p2646
I1293
sVcop
p2647
I5920
sVclimate
p2648
I1294
sVcot
p2649
I5921
sVcow
p2650
I5922
sVhummus
p2651
I5923
sVcob
p2652
I5924
sVreceives
p2653
I8005
sVreceiver
p2654
I8006
sVcoo
p2655
I5925
sVpeacefully
p2656
I5926
sVtone
p2657
I1295
sVspear
p2658
I5928
sVroyal
p2659
I2442
sVtons
p2660
I1297
sVspeak
p2661
I8036
sVengines
p2662
I5930
sVchimneys
p2663
I5931
sVrefurbished
p2664
I8998
sVdozens
p2665
I5932
sVscarecrow
p2666
I5933
sVcutouts
p2667
I5934
sVfamilies
p2668
I5935
sVinnocent
p2669
I5852
sVrelaxing
p2670
I5936
sVattacked
p2671
I1299
sVdroplets
p2672
I1300
sVcatering
p2673
I5937
sVapplied
p2674
I8101
sVtide
p2675
I1301
sVhas
p2676
I208
sVlaunches
p2677
I8110
sVhandlers
p2678
I5938
sVair
p2679
I1302
sVaim
p2680
I8114
sVapplies
p2681
I1303
sVaid
p2682
I1304
sVproperty
p2683
I1305
sVvegetarian
p2684
I1306
sVlaunched
p2685
I1307
sVsavanna
p2686
I1308
sVcylinder
p2687
I1309
sVexceptionally
p2688
I6366
sVsticker
p2689
I5940
sVdumped
p2690
I5941
sVtissue
p2691
I1310
sVbrake
p2692
I8149
sVcone
p2693
I1311
sVdescent
p2694
I5943
sVsoldier
p2695
I6368
sVperform
p2696
I1314
sVapparently
p2697
I3244
sVplated
p2698
I5946
sVdescend
p2699
I5947
sVplater
p2700
I5948
sVplates
p2701
I5949
sVbunny
p2702
I8192
sVwheel
p2703
I1315
sVplating
p2704
I5952
sVhang
p2705
I1316
sVrain
p2706
I5954
sVhand
p2707
I1317
sVdocuments
p2708
I5604
sVtraffice
p2709
I1318
sVwispy
p2710
I5958
sVkept
p2711
I5959
sVcondiments
p2712
I5960
sVpeacocks
p2713
I1319
sVhuddling
p2714
I3049
sVcompartments
p2715
I8246
sVcontact
p2716
I8253
sVmamma
p2717
I5962
sVthe
p2718
I5963
sVmusical
p2719
I1320
sVtrainer
p2720
I6369
sVmingle
p2721
I2402
sVkale
p2722
I1321
sVathletic
p2723
I1322
sVphoto
p2724
I8270
sVclustered
p2725
I212
sVgoggles
p2726
I5964
sVfarther
p2727
I8281
sVupturned
p2728
I5965
sVsmoothies
p2729
I1324
sVadding
p2730
I5966
sVboars
p2731
I1325
sVunique
p2732
I4782
sVhills
p2733
I5967
sVflooring
p2734
I5968
sVyamaha
p2735
I1327
sVphotographer
p2736
I5969
sVoccupants
p2737
I5970
sVhilly
p2738
I5971
sVbelongs
p2739
I1329
sVtransformed
p2740
I5973
sVcranberries
p2741
I5974
sVphotographed
p2742
I1409
sVboxed
p2743
I1330
sVmayo
p2744
I5976
sVhalfeaten
p2745
I8329
sVcaps
p2746
I5977
sVlcd
p2747
I1332
sVboxer
p2748
I8335
sVbarge
p2749
I5978
sVcape
p2750
I5979
sVhairless
p2751
I1333
sVcooler
p2752
I1334
sVlily
p2753
I985
sVgrizzly
p2754
I5981
sVlapsed
p2755
I5982
sVsparse
p2756
I1336
sVnight
p2757
I1337
sVsecurity
p2758
I5985
sVantique
p2759
I5986
sVkitesurfing
p2760
I2455
sVeyeing
p2761
I1338
sVborn
p2762
I1339
sVconfusing
p2763
I1340
sVbiplanes
p2764
I5610
sVnuzzles
p2765
I1341
sVpurple
p2766
I5990
sVfilming
p2767
I1342
sVasking
p2768
I1343
sVadorable
p2769
I1344
sVpeek
p2770
I1345
sVposh
p2771
I8427
sVpose
p2772
I4738
sVillustration
p2773
I7068
sVgraduates
p2774
I5991
sVarchitectural
p2775
I1347
sVpeer
p2776
I1348
sVpeep
p2777
I1349
sVtrophy
p2778
I5992
sVbreaded
p2779
I1350
sVdiner
p2780
I5993
sVcoral
p2781
I1351
sVprepping
p2782
I7116
sVanime
p2783
I5995
sVhorizon
p2784
I5996
sVgingerbread
p2785
I5997
sVoctopus
p2786
I1353
sVpineapples
p2787
I5998
sVmantle
p2788
I5999
sVfloat
p2789
I8483
sVbound
p2790
I8486
sVbalances
p2791
I6000
sVcandlesticks
p2792
I1354
sVrendering
p2793
I1355
sVcapped
p2794
I1356
sVbalanced
p2795
I6001
sVslushy
p2796
I3958
sVstrangely
p2797
I1358
sVavailable
p2798
I724
sVfight
p2799
I6004
sVway
p2800
I1359
sVwax
p2801
I8515
sVwas
p2802
I1360
sVwar
p2803
I1361
sVsnowy
p2804
I6005
sVbecoming
p2805
I1362
sVconverse
p2806
I1363
sVsnows
p2807
I6006
sVmysterious
p2808
I2122
sVneedles
p2809
I1364
sVelderly
p2810
I2460
sVsailboats
p2811
I1365
sVtrue
p2812
I1366
sVgarnish
p2813
I4022
sVcrows
p2814
I1368
sVcrystal
p2815
I6011
sVwinery
p2816
I1370
sVcoverings
p2817
I1371
sVunusually
p2818
I6012
sVflour
p2819
I8001
sVgather
p2820
I3804
sVlabels
p2821
I4851
sVflat
p2822
I4026
sVumpire
p2823
I6013
sVmuscular
p2824
I1372
sVwintry
p2825
I6015
sVmousepad
p2826
I1373
sVphysical
p2827
I8602
sVbaguette
p2828
I6018
sVdimly
p2829
I6019
sVdying
p2830
I6020
sVstake
p2831
I8879
sVhandmade
p2832
I8618
sVtopped
p2833
I1374
sVparklike
p2834
I6021
sVinterested
p2835
I6022
sVcarpeting
p2836
I6023
sVtest
p2837
I1375
sVfrolic
p2838
I1376
sVbrothers
p2839
I1377
sVjuicer
p2840
I1378
sVjuices
p2841
I8646
sVwelcome
p2842
I1379
sVnotepad
p2843
I1380
sVump
p2844
I1383
sVtugboat
p2845
I6025
sValertly
p2846
I1384
sVtogether
p2847
I6027
sVbeds
p2848
I1385
sVreception
p2849
I6028
sVconcept
p2850
I1386
sVdance
p2851
I6031
sVsilverware
p2852
I1388
sVhorseback
p2853
I1389
sVselection
p2854
I4817
sVmicrowave
p2855
I2467
sVbattle
p2856
I1390
sVtoothpick
p2857
I6032
sVlayers
p2858
I1392
sVcertainly
p2859
I1393
sVmounted
p2860
I1394
sVgrape
p2861
I6033
sVzone
p2862
I6034
sVmallet
p2863
I61
sVflask
p2864
I6036
sVgraph
p2865
I6037
sVhump
p2866
I6038
sVflash
p2867
I6039
sVfog
p2868
I4797
sVtusk
p2869
I1396
sVsouthwest
p2870
I1397
sVbarbedwire
p2871
I8753
sVprotective
p2872
I6041
sVboombox
p2873
I6042
sVbrownie
p2874
I6043
sVvegan
p2875
I6044
sVautomobiles
p2876
I1400
sVvegas
p2877
I6045
sVkitten
p2878
I5284
sVtrouble
p2879
I6046
sVblast
p2880
I6047
sVmargarita
p2881
I2630
sVgnarly
p2882
I1401
sVpresented
p2883
I1402
sVturns
p2884
I1403
sVgun
p2885
I1404
sVgum
p2886
I1405
sVp
p2887
I6050
sVq
p2888
I7260
sVguitars
p2889
I6051
sVsteeple
p2890
I6052
sVguy
p2891
I1407
sVwoven
p2892
I8798
sVupper
p2893
I6054
sVbrave
p2894
I8804
sVcost
p2895
I1408
sVcargo
p2896
I8828
sVappear
p2897
I1410
sVbarbie
p2898
I1411
sVassistance
p2899
I8831
sVwildebeest
p2900
I1412
sVshares
p2901
I1413
sVuniform
p2902
I8839
sVpeels
p2903
I1414
sVsequential
p2904
I1415
sVshared
p2905
I1416
sVsupporting
p2906
I6056
sVknickknacks
p2907
I1417
sVpeeled
p2908
I4224
sVchainlink
p2909
I1419
sVgoldfish
p2910
I6059
sVroaring
p2911
I1420
sVteaches
p2912
I1421
sVteacher
p2913
I4959
sVchange
p2914
I6061
sVsending
p2915
I1422
sVincoming
p2916
I8886
sVflames
p2917
I1423
sVexiting
p2918
I6063
sVtrial
p2919
I6064
sVbangs
p2920
I1424
sVpatriotic
p2921
I6065
sVpillow
p2922
I1426
sVmacintosh
p2923
I1427
sVdefensive
p2924
I1429
sVhiking
p2925
I6066
sVextra
p2926
I1430
sVmarked
p2927
I6067
sVuphill
p2928
I1431
sVsnowboard
p2929
I6068
sVpuffed
p2930
I1433
sVmarker
p2931
I6070
sVmarket
p2932
I8928
sVflavors
p2933
I6071
sVterminal
p2934
I1000
sVstreetcar
p2935
I6073
sVcanon
p2936
I5068
sVlive
p2937
I6075
sVjam
p2938
I1001
sVripening
p2939
I8942
sVangels
p2940
I6076
sVintently
p2941
I1438
sVentrance
p2942
I6077
sVcountertop
p2943
I6078
sVclub
p2944
I8954
sVenvelope
p2945
I6080
sVfuton
p2946
I1439
sVdunking
p2947
I7127
sVclumps
p2948
I6081
sVcountertops
p2949
I1441
sVcigarettes
p2950
I6082
sVinstructional
p2951
I223
sVgraphic
p2952
I1443
sVskaters
p2953
I1444
sVdecked
p2954
I1445
sVcar
p2955
I1446
sVcap
p2956
I1447
sVcat
p2957
I1448
sVdecker
p2958
I1449
sVlabeled
p2959
I6084
sVgathers
p2960
I6085
sVcan
p2961
I1450
sVcal
p2962
I1451
sVcab
p2963
I3107
sVmouses
p2964
I6087
sVbreeds
p2965
I6961
sVheart
p2966
I1453
sVdedicated
p2967
I6088
sVgrassy
p2968
I6089
sVpauses
p2969
I6090
sVparasailor
p2970
I1454
sVchip
p2971
I1455
sVpaused
p2972
I8107
sVheard
p2973
I1456
sVchin
p2974
I1458
sVchic
p2975
I1460
sVclothing
p2976
I1461
sVpong
p2977
I4040
sVwetsuits
p2978
I9016
sVdiscussion
p2979
I1462
sVspreads
p2980
I1463
sVfreezer
p2981
I1538
sVwrite
p2982
I6096
sVfrisbeebased
p2983
I1464
sVflank
p2984
I3257
sVmotorcross
p2985
I6391
sVafternoon
p2986
I2477
sVproduct
p2987
I1465
sVstaircase
p2988
I6098
sVponies
p2989
I6100
sVsouthern
p2990
I6101
sVjousting
p2991
I6102
sVproduce
p2992
I1466
sVvases
p2993
I1467
sVlifting
p2994
I6104
sVgoal
p2995
I4043
sVcrepe
p2996
I6105
sVnoses
p2997
I1468
sVbrussel
p2998
I1469
sVcandles
p2999
I6106
sVcorona
p3000
I1470
sVtypical
p3001
I6109
sVtagged
p3002
I6110
sVserving
p3003
I1471
sVbarnyard
p3004
I1472
sVcolt
p3005
I6111
sVhaircut
p3006
I6112
sVdisplayed
p3007
I1474
sVplayful
p3008
I1476
sVtablets
p3009
I1477
sVcongregating
p3010
I6113
sVcold
p3011
I6115
sVbraid
p3012
I9104
sVbirds
p3013
I6117
sVcola
p3014
I6118
sVtending
p3015
I6119
sVrooftop
p3016
I6120
sVcurly
p3017
I6121
sVholing
p3018
I1479
sVreacting
p3019
I7738
sVcurls
p3020
I6122
sVvicinity
p3021
I1481
sVyams
p3022
I9117
sVstyrofoam
p3023
I1007
sVforms
p3024
I9118
sVwindow
p3025
I6123
sVspacious
p3026
I1482
sVtiara
p3027
I1483
sVnon
p3028
I1484
sVfling
p3029
I6125
sVaer
p3030
I1008
sVtails
p3031
I1485
sVslacks
p3032
I1486
sVhalf
p3033
I6127
sVnot
p3034
I1487
sVnow
p3035
I1488
sVdiscuss
p3036
I4139
sVgalloping
p3037
I1489
sVbarrow
p3038
I6130
sVdown
p3039
I6131
sVidyllic
p3040
I6132
sVstreaks
p3041
I6133
sVdrop
p3042
I1490
sVbacksplash
p3043
I9170
sVentirely
p3044
I6137
sVcliffs
p3045
I6138
sVunloaded
p3046
I1492
sVfurnishing
p3047
I1493
sVsugary
p3048
I9194
sVen
p3049
I6140
sVfired
p3050
I1688
sVstooping
p3051
I1495
sVdirecting
p3052
I1496
sVgoose
p3053
I6141
sVfires
p3054
I6142
sVex
p3055
I6143
sVyear
p3056
I9202
sVhappen
p3057
I3662
sVteams
p3058
I3260
sVmonitors
p3059
I1498
sVamusement
p3060
I1499
sVwheelers
p3061
I6144
sValbum
p3062
I9210
sVshown
p3063
I6145
sVopened
p3064
I6146
sVspace
p3065
I6147
sVlooking
p3066
I7869
sVopener
p3067
I6148
sVnavigating
p3068
I12
sVsteeples
p3069
I1501
sVshowroom
p3070
I6150
sVreceiving
p3071
I6151
sVshows
p3072
I6152
sVcars
p3073
I1502
sVcart
p3074
I1503
sVbodyboarding
p3075
I1504
sVgrimacing
p3076
I6154
sVmarina
p3077
I6155
sVmarine
p3078
I6156
sVcard
p3079
I1505
sVcare
p3080
I6520
sVreflect
p3081
I4201
sVfixed
p3082
I3262
sVselections
p3083
I1507
sVbritish
p3084
I1508
sVtangled
p3085
I1509
sVdomed
p3086
I6160
sVsupport
p3087
I1510
sVfe
p3088
I1511
sVblind
p3089
I1512
sVflying
p3090
I2485
sVshears
p3091
I65
sVstriking
p3092
I6161
sVamid
p3093
I3455
sVmountainside
p3094
I6162
sVflipping
p3095
I1513
sVrink
p3096
I1514
sVrind
p3097
I1515
sVmessage
p3098
I4213
sVsize
p3099
I6163
sVsheep
p3100
I6164
sVsheer
p3101
I6165
sVchecked
p3102
I1517
sVjugs
p3103
I89
sVcaught
p3104
I1518
sVbreed
p3105
I6167
sVtusks
p3106
I6168
sVchecker
p3107
I1519
sVcarousel
p3108
I6169
sVpuddle
p3109
I1522
sVfriend
p3110
I6170
sVmostly
p3111
I114
sVthat
p3112
I6328
sVexpanse
p3113
I6171
sVflowery
p3114
I126
sVquad
p3115
I1523
sVthai
p3116
I6172
sVflowers
p3117
I7689
sVkabob
p3118
I1525
sVthan
p3119
I6173
sVprofessionals
p3120
I1526
sVtelevision
p3121
I1527
sVrugged
p3122
I6174
sVseuss
p3123
I6175
sVapples
p3124
I1528
sVfruits
p3125
I6176
sVhappy
p3126
I4816
sVlunches
p3127
I6177
sVangel
p3128
I6179
sVslaw
p3129
I1529
sVslat
p3130
I1530
sVslap
p3131
I1531
sVracetrack
p3132
I1720
sV13th
p3133
I6180
sVslam
p3134
I1532
sVdistorted
p3135
I1533
sVbreakfast
p3136
I6183
sVslab
p3137
I1534
sVoffering
p3138
I6184
sVskidding
p3139
I6186
sVsnout
p3140
I1536
sVequipment
p3141
I1537
sVhookah
p3142
I4144
sVonline
p3143
I6187
sVawaits
p3144
I3269
sVchopsticks
p3145
I1723
sVtopping
p3146
I6188
sVprice
p3147
I1541
sVneatly
p3148
I1542
sVblowdrying
p3149
I1017
sVlookers
p3150
I6190
sVamerica
p3151
I1544
sVsauteed
p3152
I1545
sVfeminine
p3153
I2490
sVsteady
p3154
I1547
sVtooth
p3155
I6192
sVsunset
p3156
I264
sVpattern
p3157
I3272
sVprofessional
p3158
I717
sVabraham
p3159
I6193
sVfiling
p3160
I6194
sVfoaming
p3161
I6195
sVphotoshop
p3162
I7409
sVgerman
p3163
I8189
sVoctagonal
p3164
I6196
sVscoreboard
p3165
I1550
sVfifty
p3166
I1551
sVtalbot
p3167
I290
sVtiedyed
p3168
I1553
sVfifth
p3169
I164
sVcrashing
p3170
I3163
sVsnack
p3171
I1554
sVbusily
p3172
I6198
sVgauges
p3173
I430
sVstair
p3174
I1555
sVtitle
p3175
I6200
sVstained
p3176
I1556
sVonly
p3177
I322
sVstain
p3178
I9
sVpumpkin
p3179
I2370
sVtelevisions
p3180
I2544
sVpastrami
p3181
I6203
sVcannon
p3182
I1558
sVcongratulations
p3183
I5676
sVtruly
p3184
I347
sVremotes
p3185
I6204
sVcannot
p3186
I1798
sVbracelets
p3187
I6205
sVstroll
p3188
I1559
sVskinning
p3189
I828
sVleather
p3190
I6206
sVinside
p3191
I3635
sVhusband
p3192
I8550
sVconcert
p3193
I1500
sVstaged
p3194
I6030
sVanchored
p3195
I1562
sVactively
p3196
I1563
sVasleep
p3197
I1564
sVsport
p3198
I408
sVcolgate
p3199
I4704
sVdressage
p3200
I6209
sVtackling
p3201
I424
sVfascinated
p3202
I6211
sVglaze
p3203
I1565
sV3
p3204
I6212
sVskyscraper
p3205
I6213
sVbetween
p3206
I431
sVmandarin
p3207
I3100
sVwhipped
p3208
I6214
sVnotice
p3209
I6215
sVarticle
p3210
I6217
sVinstallation
p3211
I1567
sVfliers
p3212
I6219
sVballpark
p3213
I6220
sVmonk
p3214
I1568
sVflaps
p3215
I1569
sVwheels
p3216
I6221
sVcomes
p3217
I479
sVnearby
p3218
I6222
sVsnuggle
p3219
I3351
sVoverview
p3220
I490
sVjeans
p3221
I1571
sVwreaths
p3222
I6223
sVlearning
p3223
I501
sVforehand
p3224
I6224
sVpigtails
p3225
I6225
sVsledding
p3226
I1575
sVolives
p3227
I6226
sVcycling
p3228
I6227
sVfallen
p3229
I4083
sVmenacingly
p3230
I6228
sVskatboard
p3231
I1576
sVbaseball
p3232
I8432
sVtropical
p3233
I1577
sVrotting
p3234
I1578
sVfours
p3235
I3983
sVobservers
p3236
I6230
sVlanguage
p3237
I7297
sVstovetop
p3238
I6231
sVexternal
p3239
I6232
sVrubs
p3240
I1580
sVstems
p3241
I6233
sVfoggy
p3242
I6234
sVskiers
p3243
I1581
sVruby
p3244
I2002
sVvespa
p3245
I566
sVcrumb
p3246
I6235
sVthese
p3247
I1582
sVchinatown
p3248
I1583
sVhandicapped
p3249
I6237
sVjoke
p3250
I3277
sValcoholic
p3251
I1584
sVsoil
p3252
I6238
sVinflatable
p3253
I1585
sVfigurines
p3254
I1586
sVembrace
p3255
I6240
sVsprouts
p3256
I1588
sVheels
p3257
I6241
sVbeaver
p3258
I1589
sVwaterway
p3259
I1590
sVstickers
p3260
I5950
sVship
p3261
I6243
sVmedia
p3262
I6246
sVdoorway
p3263
I1023
sVgentlemen
p3264
I6247
sVcupola
p3265
I6339
sVfigurine
p3266
I1591
sVlite
p3267
I1592
sVstreams
p3268
I1024
sVdocument
p3269
I6249
sVnumerals
p3270
I1593
sVsweeper
p3271
I6250
sVfinish
p3272
I6251
sVclosest
p3273
I5402
sVsquatted
p3274
I1595
sVfoal
p3275
I1596
sVfoam
p3276
I1597
sVmarking
p3277
I2498
sVfruit
p3278
I6252
sVinvestigates
p3279
I6253
sVcinder
p3280
I6254
sVburrito
p3281
I6255
sVpatchwork
p3282
I6256
sVcharger
p3283
I6257
sVbreeze
p3284
I1599
sVperipherals
p3285
I1600
sVtaxi
p3286
I1601
sVlivestock
p3287
I1602
sVtossing
p3288
I6258
sVbattleship
p3289
I1603
sVdancers
p3290
I708
sVneon
p3291
I1604
sVrestrooms
p3292
I6260
sVfoot
p3293
I6415
sVtouch
p3294
I6261
sVspeed
p3295
I6262
sVmingling
p3296
I5814
sVsnowboarder
p3297
I6264
sVthinking
p3298
I6265
sViphones
p3299
I731
sVmirrored
p3300
I1607
sVdesktop
p3301
I736
sVtrestle
p3302
I6266
sVparts
p3303
I2110
sVstruck
p3304
I6267
sVinstructions
p3305
I4069
sVreal
p3306
I6268
sVpropped
p3307
I1609
sVhover
p3308
I6269
sVfrown
p3309
I6270
sVread
p3310
I6271
sVruler
p3311
I1611
sVstools
p3312
I8355
sVearly
p3313
I6272
sVoverlooks
p3314
I1612
sVlistening
p3315
I1613
sVusing
p3316
I6879
sVlady
p3317
I6273
sVfryer
p3318
I772
sVrear
p3319
I6274
sVconversing
p3320
I6497
sVpostcard
p3321
I6275
sVstreamers
p3322
I6276
sVblackberry
p3323
I1616
sVdownward
p3324
I804
sVceremonial
p3325
I8095
sVvegtables
p3326
I1618
sVtwelve
p3327
I1619
sVprairie
p3328
I6055
sVboxcars
p3329
I3981
sVexposed
p3330
I1621
sVsidwalk
p3331
I1622
sVsling
p3332
I7164
sVyaks
p3333
I841
sVrecorded
p3334
I6279
sVdealership
p3335
I851
sVrecorder
p3336
I857
sVassembly
p3337
I1624
sVpylons
p3338
I1625
sVbusiness
p3339
I6282
sVchefs
p3340
I6283
sVcourch
p3341
I872
sVvolkswagen
p3342
I1626
sVsniffs
p3343
I7205
sVpapered
p3344
I883
sVleftover
p3345
I1627
sVstrainer
p3346
I6284
sVexciting
p3347
I1628
sVthrow
p3348
I6008
sVcomparison
p3349
I6285
sVcentral
p3350
I895
sVkickflip
p3351
I1629
sVpaints
p3352
I6287
sVchoo
p3353
I6288
sVchop
p3354
I6289
sVgump
p3355
I6290
sVwolf
p3356
I1630
sVunderway
p3357
I915
sVbackup
p3358
I1631
sVprocessor
p3359
I6292
sVheater
p3360
I6293
sVheated
p3361
I6294
sVoperator
p3362
I6295
sVtilted
p3363
I4070
sVyour
p3364
I6296
sVstare
p3365
I1634
sVgrates
p3366
I6297
sVgrater
p3367
I6298
sVlog
p3368
I1635
sVprepare
p3369
I6299
sVarea
p3370
I6300
sVremoving
p3371
I1636
sVstark
p3372
I1638
sVlos
p3373
I3434
sVcats
p3374
I2947
sVlow
p3375
I1640
sVlot
p3376
I968
sVpitcher
p3377
I1643
sVpitches
p3378
I1644
sVcuriously
p3379
I6305
sVomelet
p3380
I1645
sVcottage
p3381
I6306
sVpitched
p3382
I1647
sVtrying
p3383
I6307
sVfeather
p3384
I1028
sVhappening
p3385
I2507
sVtoned
p3386
I6310
sVembedded
p3387
I1648
sVcomics
p3388
I6311
sVappliance
p3389
I5008
sVtones
p3390
I6313
sVcartons
p3391
I6314
sVoxen
p3392
I6315
sVscanner
p3393
I6316
sVdescribe
p3394
I6317
sVmoved
p3395
I6318
sVsales
p3396
I6319
sVskateboarders
p3397
I6320
sVnerd
p3398
I6322
sVshowerhead
p3399
I1650
sVnerf
p3400
I1042
sVcabinets
p3401
I1651
sVantenna
p3402
I6323
sVstorage
p3403
I6325
sVfoothills
p3404
I6326
sVdefaced
p3405
I2266
sVmilking
p3406
I1652
sVyou
p3407
I6329
sVhouseboat
p3408
I6330
sVpoor
p3409
I1653
sVpolar
p3410
I6332
sVpoop
p3411
I1655
sVtreks
p3412
I1656
sVcaddy
p3413
I3297
sVdrift
p3414
I5281
sVpeas
p3415
I1082
sVpodium
p3416
I1658
sVflattened
p3417
I6333
sVpeak
p3418
I1659
sVsuited
p3419
I1660
sVtorches
p3420
I6334
sVpooh
p3421
I1661
sVbanners
p3422
I4840
sVpool
p3423
I1662
sVbuilding
p3424
I6335
sVorioles
p3425
I1663
sVvines
p3426
I6336
sVuntidy
p3427
I1664
sVlipstick
p3428
I654
sVembracing
p3429
I1109
sVabstract
p3430
I8587
sVstrings
p3431
I6337
sVmannequin
p3432
I1030
sVsurrounded
p3433
I1751
sVskeleton
p3434
I1666
sVpointing
p3435
I6338
sVpeacock
p3436
I4841
sVfingertips
p3437
I2601
sVsurboard
p3438
I1667
sVmp3
p3439
I6341
sVmessy
p3440
I6342
sVreligious
p3441
I1669
sVcarpet
p3442
I6343
sVblueberries
p3443
I1211
sVicons
p3444
I6345
sVkneepads
p3445
I6347
sVfountain
p3446
I6428
sVwashroom
p3447
I6348
sVvery
p3448
I1175
sVrobes
p3449
I6350
sVscrewdriver
p3450
I1670
sVselfies
p3451
I1182
sVbalancing
p3452
I6351
sVlouis
p3453
I1671
sVmild
p3454
I7176
sVspaceous
p3455
I6353
sVlocomotive
p3456
I1675
sVcookies
p3457
I1676
sVwidescreen
p3458
I3309
sVfence
p3459
I6357
sVstreets
p3460
I1677
sVnearing
p3461
I6358
sVhamper
p3462
I1249
sVbomber
p3463
I5203
sVdarkness
p3464
I6360
sVdribbling
p3465
I6361
sVunattached
p3466
I6817
sVscallops
p3467
I1679
sVedited
p3468
I6362
sVloose
p3469
I1288
sVtracks
p3470
I1681
sVdune
p3471
I6435
sVtrunk
p3472
I1296
sVstrong
p3473
I6363
sVarena
p3474
I1684
sVbathtub
p3475
I5061
sVcolored
p3476
I6364
sVahead
p3477
I6365
sVinspired
p3478
I1686
sVwhine
p3479
I1687
sVcreepy
p3480
I6367
sVdrawers
p3481
I1313
sVamount
p3482
I9022
sVadvertising
p3483
I1689
sVuniquely
p3484
I4978
sVfamily
p3485
I1690
sVcosmetic
p3486
I6371
sVdisgusting
p3487
I6372
sVcapital
p3488
I4294
sVhogs
p3489
I6373
sVchunky
p3490
I6374
sVaimed
p3491
I1692
sVtrained
p3492
I6375
sVtoys
p3493
I1693
sVchunks
p3494
I6376
sVthatched
p3495
I1694
sVattendant
p3496
I6377
sVconventional
p3497
I1695
sVtakes
p3498
I1696
sVcontains
p3499
I1697
sVstirfry
p3500
I6378
sVtaken
p3501
I1699
sVautographs
p3502
I6379
sVchestnut
p3503
I1700
sVlowering
p3504
I1701
sVpropellers
p3505
I1702
sVscallions
p3506
I6380
sVbroke
p3507
I6381
sVbrowned
p3508
I6382
sVhurry
p3509
I6383
sVproducing
p3510
I1703
sVgrill
p3511
I1704
sVsweeps
p3512
I6384
sVnine
p3513
I6385
sVfronted
p3514
I1707
sVrotini
p3515
I6386
sVparasol
p3516
I6387
sVbriefcase
p3517
I7711
sVbarbwire
p3518
I6388
sVpushes
p3519
I6389
sV747
p3520
I1708
sVpushed
p3521
I6390
sVcows
p3522
I1709
sVphrase
p3523
I1459
sVmagenta
p3524
I1710
sVspecies
p3525
I1711
sVhamburgers
p3526
I1712
sVflatbed
p3527
I283
sVcaption
p3528
I6441
sVchops
p3529
I6393
sVledges
p3530
I6394
sVostriches
p3531
I1475
sVmenus
p3532
I4689
sVrecording
p3533
I2955
sVtried
p3534
I6395
sVdaisy
p3535
I4793
sVdwarfed
p3536
I6396
sVtries
p3537
I6397
sVstreetlamp
p3538
I1717
sVhorizontal
p3539
I1718
sVfo
p3540
I6399
sVa
p3541
I6400
sVworkstation
p3542
I1719
sVlaminate
p3543
I6401
sVbugs
p3544
I6402
sVanytime
p3545
I1721
sVdread
p3546
I1539
sVcrafts
p3547
I1724
sVbanks
p3548
I1543
sVbreads
p3549
I1546
sVegg
p3550
I6403
sVeagle
p3551
I3781
sVchicks
p3552
I1549
sVremnants
p3553
I1725
sVhelp
p3554
I1726
sVrhinos
p3555
I6405
sVurine
p3556
I1727
sVsoon
p3557
I1728
sVcyclists
p3558
I6406
sVheld
p3559
I6014
sVwiener
p3560
I1560
sVbullpen
p3561
I6407
sVmcdonalds
p3562
I1729
sVpuff
p3563
I1730
sVdummies
p3564
I6409
sVcarpeted
p3565
I1731
sVmultistory
p3566
I1732
sVheron
p3567
I1733
sVactually
p3568
I1574
sVsystems
p3569
I1734
sVpeanuts
p3570
I6410
sVevening
p3571
I1736
sVglares
p3572
I5674
sVnestled
p3573
I1737
sVfood
p3574
I6413
sVcel
p3575
I1739
sVpetted
p3576
I1740
sVcupcake
p3577
I1741
sVpeeing
p3578
I1742
sVstarbucks
p3579
I1744
sVsweeping
p3580
I1605
sVtowering
p3581
I6416
sVnectar
p3582
I6417
sVholiday
p3583
I4343
sVpayer
p3584
I6418
sVfully
p3585
I6419
sVkayaking
p3586
I6420
sVstopped
p3587
I5275
sVpredators
p3588
I1745
sVfairy
p3589
I1746
sVtrailer
p3590
I6421
sVheavy
p3591
I1747
sVsoapy
p3592
I2523
sVpositioned
p3593
I1748
sVbeyond
p3594
I6749
sVevent
p3595
I6424
sVparlor
p3596
I4264
sVtravels
p3597
I8814
sVdominates
p3598
I1750
sVsince
p3599
I1665
sVsafety
p3600
I1752
sV7
p3601
I1753
sVmittens
p3602
I1754
sVass
p3603
I6429
sVexpansive
p3604
I8711
sVdrink
p3605
I1044
sVbass
p3606
I6430
sVprotruding
p3607
I6431
sVdirt
p3608
I6432
sVpug
p3609
I6434
sVpub
p3610
I1682
sVhouses
p3611
I1757
sVreason
p3612
I1758
sVbase
p3613
I6436
sVcoastline
p3614
I6437
sVput
p3615
I1691
sVash
p3616
I6438
sVpup
p3617
I6439
sValgae
p3618
I1759
sVdishwasher
p3619
I1760
sVlaunch
p3620
I1761
sVterrible
p3621
I6440
sVcheering
p3622
I1714
sVamerican
p3623
I1762
sVbusinessmen
p3624
I6442
sVscouts
p3625
I1716
sVdoughnuts
p3626
I1764
sVreflected
p3627
I6443
sVelder
p3628
I6444
sVhangs
p3629
I4098
sVmist
p3630
I6447
sVmiss
p3631
I8501
sVmaple
p3632
I1766
sVhorse
p3633
I1767
sVblossom
p3634
I1769
sVairborne
p3635
I6448
sVpinned
p3636
I6450
sVattic
p3637
I1771
sVstation
p3638
I1772
sVfielder
p3639
I2087
sVsigh
p3640
I1773
sVscheme
p3641
I7285
sVbanana
p3642
I1775
sVoverexposed
p3643
I1776
sVselling
p3644
I1777
sVstorm
p3645
I4101
sVtrapped
p3646
I1778
sVbowel
p3647
I6451
sVreadies
p3648
I6452
sVjordan
p3649
I6453
sVsignaling
p3650
I1800
sVipads
p3651
I1779
sVsign
p3652
I298
sVdiorama
p3653
I6278
sVgrocery
p3654
I6454
sVhundred
p3655
I1774
sVperformers
p3656
I6455
sVgrey
p3657
I1781
sVoutcropping
p3658
I4102
sVbride
p3659
I6505
sVtoward
p3660
I1783
sVcrescent
p3661
I1785
sVmickey
p3662
I1786
sVudders
p3663
I1825
sVwithered
p3664
I1787
sVkart
p3665
I1831
sValongside
p3666
I6464
sVjuicy
p3667
I6465
sVjuice
p3668
I6466
sVbridled
p3669
I4017
sVphilly
p3670
I6467
sVlid
p3671
I1858
sVlie
p3672
I6468
sVkoala
p3673
I1861
sVcave
p3674
I1789
sVofficers
p3675
I1790
sVcamouflage
p3676
I1791
sVlit
p3677
I6470
sVlip
p3678
I1871
sVtowards
p3679
I6471
sVwallpapered
p3680
I1792
sVquote
p3681
I6472
sVbridle
p3682
I1896
sVfridges
p3683
I6473
sVeaten
p3684
I6474
sVmack
p3685
I1793
sVsturdy
p3686
I1795
sVmobile
p3687
I6475
sVclear
p3688
I6476
sVdrawing
p3689
I6477
sVtongs
p3690
I1796
sVclean
p3691
I6479
sVrestuarant
p3692
I8014
sVtubes
p3693
I1921
sVhips
p3694
I1799
sVkitcehn
p3695
I1801
sVcowgirl
p3696
I6481
sVbooze
p3697
I6482
sVstores
p3698
I3328
sVscooter
p3699
I1804
sVflesh
p3700
I1053
sVchiquita
p3701
I1805
sVflights
p3702
I6485
sVpretty
p3703
I6486
sVcircle
p3704
I6487
sVtrees
p3705
I6489
sVspeckled
p3706
I1993
sVfamous
p3707
I6490
sVpretending
p3708
I1806
sVcompeting
p3709
I1807
sVtreed
p3710
I1998
sVtubshower
p3711
I1808
sVimitating
p3712
I1809
sVchimney
p3713
I1810
sVcatches
p3714
I2006
sVcatcher
p3715
I1811
sVwithe
p3716
I6493
sVbadge
p3717
I8188
sVtoliet
p3718
I1780
sVwitha
p3719
I6494
sVgloves
p3720
I2023
sVx
p3721
I3535
sVthrowing
p3722
I6498
sVportrait
p3723
I1812
sVpatties
p3724
I6499
sVpictures
p3725
I1814
sVwon
p3726
I6500
sVwok
p3727
I6501
sVprobably
p3728
I6502
sVconditions
p3729
I1815
sVpictured
p3730
I1816
sVmissing
p3731
I1817
sVwreath
p3732
I1570
sVspray
p3733
I1819
sVreadying
p3734
I6503
sVsailboard
p3735
I6504
sVburned
p3736
I293
sVzipper
p3737
I1821
sVleague
p3738
I2096
sVeggplant
p3739
I1823
sVboxers
p3740
I2114
sVprotector
p3741
I1824
sVstoplight
p3742
I6508
sVbatters
p3743
I6509
sVjeff
p3744
I2124
sVbattery
p3745
I2125
sVbridles
p3746
I6461
sVawnings
p3747
I6510
sVbadminton
p3748
I6511
sVlikes
p3749
I6512
sVvessel
p3750
I1829
sVdinning
p3751
I4477
sVnaps
p3752
I2154
sVcoleslaw
p3753
I6463
sVstamp
p3754
I1832
sVdamp
p3755
I1833
sVciabatta
p3756
I6513
sVmaintenance
p3757
I2168
sVcollected
p3758
I1835
sVclogged
p3759
I8611
sVterritory
p3760
I6515
sVinstructing
p3761
I1836
sVempty
p3762
I1837
sValto
p3763
I1895
sVlived
p3764
I1838
sVpartly
p3765
I2184
sVclipped
p3766
I1059
sVpacks
p3767
I6516
sVwet
p3768
I1060
sVimac
p3769
I2192
sVelse
p3770
I2194
sVgrills
p3771
I6519
sVintriguing
p3772
I1840
sVloom
p3773
I1841
sVsoiled
p3774
I1842
sVlook
p3775
I1843
sVbattling
p3776
I2543
sVrope
p3777
I1844
sVpace
p3778
I1845
sVwhile
p3779
I6522
sVsmart
p3780
I1847
sVfleet
p3781
I6524
sVanimated
p3782
I6525
sVbiking
p3783
I1848
sVguide
p3784
I1849
sVloop
p3785
I1850
sVpack
p3786
I1851
sVoverlooked
p3787
I6528
sVembroidered
p3788
I1853
sVreads
p3789
I1854
sVwildflowers
p3790
I6529
sVloosened
p3791
I6530
sVready
p3792
I1855
sVpreforms
p3793
I204
sVfedora
p3794
I2261
sVbelong
p3795
I6532
sVshuttered
p3796
I6533
sVmakeshift
p3797
I1856
sVgrand
p3798
I1857
sVgestures
p3799
I3062
sVhallway
p3800
I6535
sVused
p3801
I6536
sVtemporary
p3802
I2292
sVcurbside
p3803
I7283
sVpomegranate
p3804
I1859
sVoverweight
p3805
I6537
sVyoungsters
p3806
I1860
sVuses
p3807
I2304
sVcleaning
p3808
I2307
sVcityscape
p3809
I6539
sVplugs
p3810
I6540
sVbrussels
p3811
I6541
sVidling
p3812
I1863
sVolder
p3813
I1864
sVdocked
p3814
I1865
sVwedged
p3815
I6542
sVgrind
p3816
I6543
sVrailings
p3817
I5899
sVgrins
p3818
I6544
sVwedges
p3819
I6545
sVyankees
p3820
I6546
sVcoup
p3821
I6547
sVlobsters
p3822
I2356
sVflaming
p3823
I6469
sVtechnicians
p3824
I1868
sVquarters
p3825
I6548
sVskat
p3826
I6549
sVroasted
p3827
I6550
sVpraying
p3828
I6551
sVafro
p3829
I6552
sVcanisters
p3830
I6553
sVcemetery
p3831
I6554
sVexercising
p3832
I1869
sVbarack
p3833
I6555
sVcherries
p3834
I1870
sVremaining
p3835
I1872
sVmarch
p3836
I6556
sVradiator
p3837
I2162
sVshowing
p3838
I1874
sVenthusiastically
p3839
I6557
sVgame
p3840
I1875
sVflamingo
p3841
I3336
sVwings
p3842
I1877
sVvests
p3843
I1878
sVpillar
p3844
I487
sVtoyota
p3845
I5110
sVchairs
p3846
I1065
sVhammer
p3847
I4721
sVvibrant
p3848
I3338
sVsleigh
p3849
I6750
sVsaddled
p3850
I6559
sVperked
p3851
I6560
sVparade
p3852
I1156
sVmauve
p3853
I6561
sVfathers
p3854
I6562
sVcreation
p3855
I6563
sVsome
p3856
I68
sVlips
p3857
I1883
sVsaddles
p3858
I6565
sVmustang
p3859
I6566
sVdelivered
p3860
I2504
sVdescribing
p3861
I1885
sVslathered
p3862
I1067
sVdilapidated
p3863
I1886
sVspouting
p3864
I1887
sVquickly
p3865
I3575
sVminimal
p3866
I1888
sVcgi
p3867
I6567
sVeating
p3868
I2529
sVrub
p3869
I6569
sVbooklet
p3870
I6570
sVprocessing
p3871
I6571
sVrug
p3872
I1715
sVstem
p3873
I1890
sVstep
p3874
I2546
sVassists
p3875
I1891
sVstew
p3876
I6349
sValleyway
p3877
I6573
sVfeild
p3878
I1892
sVpitchers
p3879
I2553
sVraspberry
p3880
I6574
sVsmothered
p3881
I1893
sVshine
p3882
I5057
sVgnome
p3883
I5018
sVtrucking
p3884
I6575
sVshiny
p3885
I1897
sVblock
p3886
I6577
sVseeing
p3887
I6578
sVvisit
p3888
I2557
sVwithin
p3889
I1899
sVtofu
p3890
I1900
sVsprawled
p3891
I6580
sVleeks
p3892
I1768
sVsmells
p3893
I1901
sVvineyard
p3894
I2559
sVcomputer
p3895
I3805
sVhabitat
p3896
I5710
sVplacing
p3897
I1902
sVpassanger
p3898
I2632
sVheritage
p3899
I6583
sVhimself
p3900
I2645
sVdips
p3901
I2652
sVanywhere
p3902
I6584
sVpedestals
p3903
I2654
sVspecialty
p3904
I1904
sVproperly
p3905
I1905
sVnewer
p3906
I6586
sVrussian
p3907
I6588
sVdull
p3908
I2669
sVcreams
p3909
I6589
sVpeopel
p3910
I6590
sVskull
p3911
I2677
sVcautiously
p3912
I6592
sVsimilar
p3913
I1906
sVpeope
p3914
I4879
sVordered
p3915
I1907
sVadults
p3916
I6593
sVumbrealla
p3917
I1908
sVhalfpipe
p3918
I2725
sVouthouse
p3919
I6478
sVnad
p3920
I6596
sVamounts
p3921
I1910
sVobelisk
p3922
I7672
sVnap
p3923
I2743
sVelectrical
p3924
I6598
sVdepartment
p3925
I1912
sVaprons
p3926
I1913
sVmanhattan
p3927
I1914
sVsmiles
p3928
I1915
sVdraw
p3929
I6600
sVspectators
p3930
I6601
sVcrouching
p3931
I6602
sVsmiley
p3932
I1917
sVlunging
p3933
I6603
sVdrag
p3934
I6604
sVrested
p3935
I6605
sVdrab
p3936
I6606
sVstructure
p3937
I917
sVe
p3938
I1919
sVzooming
p3939
I1920
sVdvd
p3940
I2798
sVouting
p3941
I6607
sVturbines
p3942
I1922
sVmarbled
p3943
I6648
sVpamphlets
p3944
I6608
sVbleacher
p3945
I6610
sVtwists
p3946
I6611
sVberries
p3947
I3166
sVrequires
p3948
I6612
sVbedding
p3949
I1075
sVmotorhome
p3950
I1924
sVunderbrush
p3951
I1925
sVcheerful
p3952
I7327
sVdesserts
p3953
I1926
sVhelped
p3954
I3058
sVairliners
p3955
I1927
sVgo
p3956
I6614
sVbarbecue
p3957
I6615
sVcompact
p3958
I7701
sVbaron
p3959
I6616
sVwizard
p3960
I6617
sVarid
p3961
I6618
sVsuits
p3962
I1929
sVshack
p3963
I2493
sVripened
p3964
I6619
sVtypewriter
p3965
I4327
sVcluttered
p3966
I3996
sVfriendly
p3967
I1932
sVfishnet
p3968
I6963
sVkitty
p3969
I6620
sVtrolleys
p3970
I6621
sVwave
p3971
I1936
sVwavy
p3972
I1937
sVfacebook
p3973
I6622
sVtrough
p3974
I1938
sVcellular
p3975
I1939
sVtelling
p3976
I1940
sVcrowed
p3977
I1941
sVexits
p3978
I6624
sVsnowboards
p3979
I1942
sVpositions
p3980
I1943
sVbutton
p3981
I2914
sVornately
p3982
I2915
sVpicker
p3983
I1947
sVoverloaded
p3984
I4881
sVbooty
p3985
I1948
sVpicket
p3986
I1949
sVcds
p3987
I6628
sVpepper
p3988
I3352
sVboots
p3989
I1951
sVwaking
p3990
I2954
sVjump
p3991
I1952
sVredone
p3992
I1953
sVbooth
p3993
I1954
sVpicked
p3994
I1955
sVwellmade
p3995
I6629
sVclick
p3996
I6631
sVsausage
p3997
I1957
sVcupcakes
p3998
I6632
sVplays
p3999
I2974
sVpaintings
p4000
I1958
sVwallet
p4001
I7231
sVespresso
p4002
I6633
sVcell
p4003
I6634
sVrotten
p4004
I6635
sVapplesauce
p4005
I1959
sVpoles
p4006
I6637
sVpristine
p4007
I2988
sVfocuses
p4008
I6638
sVshoreline
p4009
I6639
sVstance
p4010
I6640
sVcommercial
p4011
I1960
sVraspberries
p4012
I6641
sVfocused
p4013
I6642
sVpancake
p4014
I1961
sVnathans
p4015
I3355
sVproducts
p4016
I6644
sVsalvation
p4017
I1962
sVwig
p4018
I1963
sVexamining
p4019
I6646
sVaddresses
p4020
I6647
sVdanger
p4021
I3072
sVshake
p4022
I2583
sVwin
p4023
I1964
sVsparklers
p4024
I6649
sVwii
p4025
I1965
sVwih
p4026
I1966
sVwit
p4027
I1967
sVsinging
p4028
I3089
sVcloud
p4029
I3091
sVstrapped
p4030
I6650
sVremains
p4031
I1968
sVcamera
p4032
I1969
sVcrab
p4033
I1970
sVvehicle
p4034
I6652
sVstage
p4035
I5722
sVreflects
p4036
I6653
sVcheeks
p4037
I3112
sVformally
p4038
I1971
sVstarted
p4039
I1972
sVstatutes
p4040
I6654
sVcarvings
p4041
I6655
sVtangerine
p4042
I6656
sVcharming
p4043
I1973
sVappointed
p4044
I1974
sVcrosses
p4045
I3143
sVarched
p4046
I6658
sVsalad
p4047
I6659
sVlapse
p4048
I1975
sVwhiskers
p4049
I5720
sVdonut
p4050
I6661
sVarches
p4051
I6662
sVcrossed
p4052
I1976
sVmeet
p4053
I1977
sVdrops
p4054
I6663
sVcontrol
p4055
I6665
sVwharf
p4056
I9139
sVadmires
p4057
I340
sVlinks
p4058
I1979
sVhalloween
p4059
I6666
sVpulling
p4060
I1980
sVwonderful
p4061
I1981
sVskirt
p4062
I1982
sVegret
p4063
I1983
sVpicturesque
p4064
I1984
sVchevrolet
p4065
I3194
sVcampers
p4066
I6670
sVarrangement
p4067
I1985
sVlocated
p4068
I6671
sVbandana
p4069
I1986
sVembellished
p4070
I1987
sVentree
p4071
I3212
sVbillows
p4072
I6672
sVfarm
p4073
I1989
sVpeeling
p4074
I1990
sVronald
p4075
I1991
sVbelongings
p4076
I1992
sVspelling
p4077
I6673
sVcutlery
p4078
I6674
sVcorral
p4079
I6675
sVscoop
p4080
I1994
sVbakery
p4081
I7659
sVbakers
p4082
I1995
sVcraggy
p4083
I6676
sVwellworn
p4084
I6677
sVbathing
p4085
I6679
sVpropping
p4086
I747
sVbasement
p4087
I9214
sVincluding
p4088
I1996
sVcostume
p4089
I1997
sVduring
p4090
I6491
sVouter
p4091
I1999
sVbroom
p4092
I8647
sVnotebooks
p4093
I6682
sVgourds
p4094
I2569
sVwalnut
p4095
I2000
sVbluegreen
p4096
I2001
sVyoungster
p4097
I3293
sVsword
p4098
I6669
sVsurrounds
p4099
I3321
sVfrontal
p4100
I2004
sVnokia
p4101
I2005
sVfunctional
p4102
I2007
sVsweets
p4103
I3326
sVgloved
p4104
I6492
sVplacid
p4105
I2008
sVhands
p4106
I2009
sVfront
p4107
I6687
sVdinnerware
p4108
I2010
sVsnuggling
p4109
I5727
sVbrocolli
p4110
I2011
sVuniversity
p4111
I2012
sVslide
p4112
I2013
sVcrossing
p4113
I2014
sVshaking
p4114
I2015
sVupward
p4115
I6692
sVankles
p4116
I2016
sVshowering
p4117
I6694
sVilluminate
p4118
I3365
sVattachments
p4119
I2017
sVglobe
p4120
I3372
sVmulticolored
p4121
I3377
sVsands
p4122
I6697
sVmeasure
p4123
I6698
sVseparating
p4124
I2018
sVsandy
p4125
I6699
sVentertainment
p4126
I2021
sVarmor
p4127
I2022
sVstrokes
p4128
I2572
sVplayground
p4129
I443
sVcause
p4130
I2024
sVumbrella
p4131
I3411
sVwines
p4132
I246
sVreacts
p4133
I6703
sVdiagonal
p4134
I6704
sVdarkly
p4135
I2026
sVstrap
p4136
I3425
sVattending
p4137
I6705
sVcompletely
p4138
I2027
sVcorgi
p4139
I2028
sVunderpass
p4140
I3367
sVprincess
p4141
I6706
sVfarmland
p4142
I2030
sVtimey
p4143
I2031
sVengraved
p4144
I4147
sVroute
p4145
I6707
sVflorida
p4146
I6708
sVtimer
p4147
I2032
sVtimes
p4148
I2033
sVstride
p4149
I2034
sVshred
p4150
I2035
sVwading
p4151
I6710
sVstainless
p4152
I3368
sVstrapping
p4153
I6711
sVmad
p4154
I2574
sVpowerful
p4155
I2036
sVsuckling
p4156
I4149
sVart
p4157
I6713
sVquality
p4158
I6714
sVlong
p4159
I4241
sVdump
p4160
I3667
sVprivacy
p4161
I6715
sVbears
p4162
I6716
sVdata
p4163
I4898
sVwrapper
p4164
I2039
sVattack
p4165
I6717
sVallows
p4166
I5939
sVmotorcyle
p4167
I3509
sVankle
p4168
I3512
sVperfectly
p4169
I2042
sVtourists
p4170
I3518
sVpaved
p4171
I3521
sVexactly
p4172
I6721
sVfuzzy
p4173
I6722
sVherself
p4174
I6723
sVnewlywed
p4175
I2045
sVwaist
p4176
I2577
sVphotograph
p4177
I6724
sVben
p4178
I6725
sVbed
p4179
I6726
sVbee
p4180
I6727
sVcartoonish
p4181
I2046
sVarc
p4182
I8638
sV6th
p4183
I3121
sVdumb
p4184
I3725
sVproviding
p4185
I6729
sVbet
p4186
I6730
sVbard
p4187
I6731
sVexhibit
p4188
I6732
sVbagged
p4189
I1091
sVlightly
p4190
I6733
sVcarrots
p4191
I6734
sVrecessed
p4192
I6645
sVsundown
p4193
I6735
sVclose
p4194
I8239
sVneed
p4195
I6736
sVborder
p4196
I6737
sVemptying
p4197
I3594
sVtabe
p4198
I6738
sVsings
p4199
I3599
sVmicrophone
p4200
I6739
sVsprinkles
p4201
I6740
sVsprinkler
p4202
I6741
sVcranes
p4203
I3602
sVable
p4204
I6743
sVthorny
p4205
I7261
sVpurchasing
p4206
I6745
sVsprinkled
p4207
I3615
sVtruck
p4208
I4903
sVseasonings
p4209
I6746
sVvisor
p4210
I6748
sVmountaintop
p4211
I2050
sVmedals
p4212
I4100
sVblades
p4213
I2051
sVtshirts
p4214
I3637
sVsewing
p4215
I4986
sVcamper
p4216
I2052
sVkickstand
p4217
I6751
sVbasket
p4218
I2579
sVconnected
p4219
I6752
sVpreparations
p4220
I3375
sVexpired
p4221
I2054
sVgallery
p4222
I2055
sVcellphone
p4223
I2056
sVstereo
p4224
I3664
sVurn
p4225
I2057
sVupset
p4226
I6754
sVscrambled
p4227
I3550
sVlowered
p4228
I1092
sVsnapshot
p4229
I2058
sVtalk
p4230
I2581
sVdistinctive
p4231
I7920
sVbusinessman
p4232
I6757
sVemerging
p4233
I6758
sVkiddie
p4234
I6759
sVindoor
p4235
I1683
sVcrate
p4236
I2059
sVparked
p4237
I6760
sVottoman
p4238
I2060
sVshoes
p4239
I2582
sVpartners
p4240
I3716
sVbased
p4241
I2062
sVunfinished
p4242
I2063
sVtire
p4243
I3721
sVwinner
p4244
I6763
sVpouches
p4245
I6207
sVbases
p4246
I2064
sVcreamer
p4247
I6764
sVemployee
p4248
I1988
sVsurfs
p4249
I6767
sVheartshaped
p4250
I6768
sVdodge
p4251
I5665
sVsprouting
p4252
I2067
sVmichigan
p4253
I3930
sVsipping
p4254
I6771
sVjoint
p4255
I6772
sVtossed
p4256
I1094
sVyears
p4257
I357
sVscrolling
p4258
I6774
sVgray
p4259
I3765
sVtrucks
p4260
I5957
sVoverstuffed
p4261
I4153
sVgras
p4262
I2069
sVmotorboat
p4263
I6776
sVtuned
p4264
I2070
sVprocessed
p4265
I4061
sVcontain
p4266
I6778
sVuniformed
p4267
I3785
sVwidow
p4268
I2073
sVspotted
p4269
I2074
sVsolo
p4270
I4154
sVhardwood
p4271
I6779
sVpitch
p4272
I6780
sVterrain
p4273
I1743
sVoperates
p4274
I2607
sVofficials
p4275
I2075
sVdriveway
p4276
I2076
sVoperated
p4277
I2077
sVplaced
p4278
I1097
sVmarshy
p4279
I6782
sVtend
p4280
I2079
sVwritten
p4281
I3837
sVhorrible
p4282
I6783
sVflickr
p4283
I6784
sVtent
p4284
I2080
sVnutritious
p4285
I6785
sVsole
p4286
I4157
sVmunching
p4287
I6786
sVbuckets
p4288
I3855
sVlimbs
p4289
I8969
sVkicking
p4290
I2082
sVmerry
p4291
I3867
sVapproval
p4292
I3871
sVthank
p4293
I7272
sVhits
p4294
I2084
sVsniff
p4295
I2085
sVcondiment
p4296
I2086
sVaccordion
p4297
I4910
sVaqua
p4298
I6788
sVsmoothie
p4299
I7273
sVjourney
p4300
I2506
sVspandex
p4301
I6790
sVinvisible
p4302
I1820
sVkings
p4303
I2089
sVpoem
p4304
I6791
sVaddition
p4305
I6792
sVbricked
p4306
I6793
sVallover
p4307
I6794
sVnurses
p4308
I1102
sVslowly
p4309
I2091
sVtreat
p4310
I6796
sVyak
p4311
I3954
sVhandset
p4312
I2092
sVgatorade
p4313
I2093
sVshoulders
p4314
I2094
sVcircus
p4315
I3380
sVcontrolled
p4316
I2095
sVboth
p4317
I6506
sVreleasing
p4318
I3966
sVorphanage
p4319
I6797
sVtopless
p4320
I3381
sVspaniel
p4321
I330
sVcontroller
p4322
I2097
sVoversize
p4323
I2098
sVkicks
p4324
I6798
sVsmoking
p4325
I2099
sVbrunch
p4326
I6799
sVbarges
p4327
I3285
sVsmartphones
p4328
I3993
sVchalk
p4329
I7538
sVtoothbrushes
p4330
I2100
sVexamines
p4331
I2102
sVresident
p4332
I6801
sVcoating
p4333
I6803
sVsurface
p4334
I2103
sVsustenance
p4335
I6804
sVexamined
p4336
I2104
sVswinging
p4337
I2105
sVbucks
p4338
I2106
sVlambs
p4339
I6805
sVcapture
p4340
I2107
sVbuldings
p4341
I2108
sVballoon
p4342
I6806
sVcampus
p4343
I2109
sVstrange
p4344
I4064
sVspeaker
p4345
I2111
sVbaord
p4346
I6807
sVeclectic
p4347
I2564
sVparty
p4348
I2112
sVfireman
p4349
I6808
sVeffect
p4350
I6809
sVfierce
p4351
I2115
sVpoultry
p4352
I4105
sVsurfboard
p4353
I4111
sVi
p4354
I6812
sVobstacles
p4355
I4116
sVwell
p4356
I4118
sVmixers
p4357
I2116
sVawning
p4358
I3282
sVadvertises
p4359
I2117
sVtaller
p4360
I6815
sVsavannah
p4361
I6816
sVtouches
p4362
I6818
sVdistant
p4363
I2119
sV40
p4364
I3386
sVadvertised
p4365
I2120
sVskill
p4366
I6819
sVparchment
p4367
I2121
sVpondering
p4368
I3511
sVheaded
p4369
I2372
sVbarefooted
p4370
I6821
sVemblems
p4371
I2126
sVextends
p4372
I6822
sVsweet
p4373
I4165
sVriverside
p4374
I2127
sVballoons
p4375
I2128
sVkick
p4376
I4185
sVclouded
p4377
I4186
sVflashing
p4378
I3919
sVample
p4379
I7877
sVvegitables
p4380
I4188
sVcrushed
p4381
I7300
sVhistoric
p4382
I6826
sVwhatever
p4383
I7695
sVunseen
p4384
I6828
sVbottoms
p4385
I2130
sVpropeller
p4386
I2131
sVintersection
p4387
I2132
sVprominent
p4388
I6831
sVlincoln
p4389
I2133
sVglazing
p4390
I4210
sVnecessary
p4391
I2134
sVlost
p4392
I2135
sVsizes
p4393
I6833
sVclown
p4394
I2136
sVtaping
p4395
I4216
sVcontrollers
p4396
I4218
sVunfolded
p4397
I1828
sVhighspeed
p4398
I2137
sVlose
p4399
I2138
sVpage
p4400
I2139
sVtrucked
p4401
I2140
sVshed
p4402
I6836
sVglare
p4403
I2141
sVlibrary
p4404
I2142
sVhush
p4405
I4251
sVfrancisco
p4406
I3324
sVwarmer
p4407
I6838
sVshes
p4408
I6839
sVhome
p4409
I2143
sVpeter
p4410
I2144
sVdrizzle
p4411
I2145
sVcompetitor
p4412
I2146
sVsteaming
p4413
I2147
sVdemonstrates
p4414
I4276
sVkettle
p4415
I6840
sVcabbages
p4416
I6841
sVgrinding
p4417
I2149
sVcradle
p4418
I2150
sVintersections
p4419
I4289
sVcoated
p4420
I2151
sVmedieval
p4421
I6844
sVreaching
p4422
I2152
sVgoatee
p4423
I2153
sVrepaired
p4424
I4923
sVcleans
p4425
I6845
sVrodeo
p4426
I6830
sVtoppings
p4427
I5100
sVbeige
p4428
I2156
sVcranberry
p4429
I2157
sVpuppies
p4430
I2158
sVtongue
p4431
I2159
sVpastries
p4432
I2160
sVcontending
p4433
I2161
sVraquet
p4434
I4341
sVwashington
p4435
I2163
sVcocoa
p4436
I2164
sVcongregate
p4437
I6847
sVartists
p4438
I6848
sVwhos
p4439
I3081
sVutility
p4440
I4367
sVurinal
p4441
I4087
sVadditional
p4442
I2166
sVwhom
p4443
I4972
sVmuseum
p4444
I6850
sVinner
p4445
I6851
sVnotices
p4446
I6852
sVrefrigeration
p4447
I4172
sVexposure
p4448
I1112
sVsuzuki
p4449
I6853
sVbackhand
p4450
I6854
sVcricket
p4451
I6855
sVnorth
p4452
I2167
sVpilled
p4453
I4400
sVhp
p4454
I4402
sVtriangular
p4455
I2169
sVfountains
p4456
I2170
sVneutral
p4457
I2171
sVstrawberries
p4458
I2172
sVgain
p4459
I2173
sVcourts
p4460
I2174
sVtechnician
p4461
I6857
sVsprinkling
p4462
I2175
sVear
p4463
I4413
sVeat
p4464
I2176
sVhe
p4465
I6859
sVsigned
p4466
I6860
sVcarriage
p4467
I6861
sVconverted
p4468
I4429
sVstories
p4469
I3177
sVleathers
p4470
I6863
sVpiece
p4471
I6864
sVdisplay
p4472
I2178
sVmechanics
p4473
I6865
sVmarketplace
p4474
I2179
sVcollectible
p4475
I1428
sVuniversal
p4476
I2180
sVtissues
p4477
I2181
sVkisses
p4478
I2182
sVtwist
p4479
I6869
sVutensils
p4480
I4450
sVbalcony
p4481
I6870
sVfunctions
p4482
I2185
sVingredients
p4483
I2186
sVfencing
p4484
I6873
sVwestminster
p4485
I6874
sVvacation
p4486
I5053
sVtalkie
p4487
I4481
sVfinch
p4488
I2187
sVstar
p4489
I2188
sVemerges
p4490
I2604
sVastounding
p4491
I2189
sVstay
p4492
I2190
sVrefreshments
p4493
I6876
sVfoil
p4494
I2191
sVtailgate
p4495
I2193
sVgrille
p4496
I6518
sVfriends
p4497
I6983
sVamp
p4498
I765
sVsamsung
p4499
I2196
sVupsidedown
p4500
I2197
sVinset
p4501
I2198
sVskimming
p4502
I2199
sVpowdery
p4503
I2200
sVknelt
p4504
I2201
sVstraws
p4505
I6882
sVasian
p4506
I2202
sVconsists
p4507
I2203
sVcaptain
p4508
I6883
sVwhose
p4509
I2204
sVfronts
p4510
I6884
sVbuddy
p4511
I2205
sVsegments
p4512
I6885
sVswan
p4513
I4581
sVremodeled
p4514
I6886
sVcontained
p4515
I4932
sVpresents
p4516
I6887
sVteaching
p4517
I6888
sVsorry
p4518
I2206
sVonstage
p4519
I6889
sVsaver
p4520
I5761
sVfists
p4521
I2207
sVupdated
p4522
I6890
sVcruising
p4523
I6891
sVrescue
p4524
I6892
sVcemetary
p4525
I2208
sVguardrail
p4526
I4610
sVrailways
p4527
I6893
sVconnects
p4528
I6894
sVvase
p4529
I4615
sVhitch
p4530
I3394
sVvast
p4531
I2210
sValpine
p4532
I6896
sVbaking
p4533
I2212
sVshoelace
p4534
I1735
sVconvenience
p4535
I6897
sVgreenish
p4536
I6899
sVemployees
p4537
I1617
sVuncooked
p4538
I6900
sVups
p4539
I6901
sVclothes
p4540
I6902
sVsnowsuits
p4541
I2215
sVfarmhouse
p4542
I6903
sVforce
p4543
I6904
sVquilt
p4544
I6905
sVwarns
p4545
I6906
sVskatebaord
p4546
I6907
sVlavender
p4547
I6908
sVjuggling
p4548
I2799
sVacross
p4549
I2691
sVlikely
p4550
I2216
sVcactus
p4551
I4674
sVcolourful
p4552
I6909
sVeven
p4553
I6910
sVwreck
p4554
I2217
sVbikini
p4555
I1846
sVasia
p4556
I6911
sVlights
p4557
I6912
sVhaze
p4558
I2219
sVfoodstuffs
p4559
I2220
sVnew
p4560
I4712
sVtips
p4561
I4713
sVever
p4562
I3545
sVhelmets
p4563
I2221
sVniche
p4564
I2222
sVpancakes
p4565
I4723
sVwakeboard
p4566
I4726
sVnever
p4567
I6914
sVdisposable
p4568
I2224
sVautomatic
p4569
I3556
sVmet
p4570
I2225
sVdinging
p4571
I2226
sVactive
p4572
I6916
sVwaring
p4573
I6917
sV100
p4574
I2227
sVcardboard
p4575
I6918
sVdry
p4576
I2228
sVtapes
p4577
I6919
sVjams
p4578
I6920
sVrests
p4579
I2229
sVpiercing
p4580
I6921
sVcredit
p4581
I2231
sVparasailer
p4582
I6923
sVrafting
p4583
I2232
sVheeled
p4584
I2233
sVintensely
p4585
I4938
sVslicer
p4586
I2234
sVslices
p4587
I2235
sVcounty
p4588
I6928
sVbusses
p4589
I4786
sVguests
p4590
I2237
sVjackets
p4591
I2238
sVhandlebar
p4592
I6929
sVlandscape
p4593
I6930
sVcough
p4594
I2615
sVarmy
p4595
I6931
sVwatering
p4596
I2239
sVarms
p4597
I6932
sVcall
p4598
I6933
sVcalm
p4599
I6934
sVtype
p4600
I6935
sVtell
p4601
I6936
sVcalf
p4602
I6937
sVposting
p4603
I4827
sVmonogrammed
p4604
I8791
sVcomposite
p4605
I6938
sVwars
p4606
I4835
sVlunge
p4607
I7212
sVberlin
p4608
I2240
sVwarm
p4609
I2241
sVadult
p4610
I2242
sVshelters
p4611
I6940
sVward
p4612
I2243
sValigned
p4613
I4844
sVpride
p4614
I2245
sVroom
p4615
I2246
sVkraut
p4616
I2247
sVrights
p4617
I4849
sVsetup
p4618
I2249
sVroof
p4619
I2250
sVmovies
p4620
I2251
sVobstacle
p4621
I4189
sVfoliage
p4622
I6941
sVroot
p4623
I2252
sVvodka
p4624
I4870
sVsquirting
p4625
I6942
sVgive
p4626
I6943
sVpunk
p4627
I4942
sVdividers
p4628
I2254
sVlaughs
p4629
I6944
sVhoney
p4630
I6945
sVfoods
p4631
I4882
sVaging
p4632
I2255
sVsideline
p4633
I1637
sVshelving
p4634
I2256
sVbraids
p4635
I6948
sVamazing
p4636
I2257
sVbutting
p4637
I6949
sVscooters
p4638
I2258
sVaboard
p4639
I387
sVbonsai
p4640
I6950
sVrise
p4641
I5450
sVcrowding
p4642
I6951
sVundergoing
p4643
I6952
sVpassageway
p4644
I8593
sVwaterfront
p4645
I2259
sVpresident
p4646
I2260
sVbushes
p4647
I4081
sVbaseline
p4648
I6531
sVpurchase
p4649
I5983
sVattempt
p4650
I2263
sVovertaken
p4651
I4970
sVlongingly
p4652
I6953
sVdescends
p4653
I2265
sVowls
p4654
I4984
sVcheckerboard
p4655
I2267
sVgoodbye
p4656
I2268
sVoperate
p4657
I2269
sVathletes
p4658
I2720
sVdeco
p4659
I6955
sVdeck
p4660
I6956
sVkeyboard
p4661
I6957
sVbudding
p4662
I2271
sVwindshield
p4663
I2272
sVbefore
p4664
I2273
sVchihuahua
p4665
I2274
sVpersonal
p4666
I2275
sVsoaking
p4667
I6958
sVblackened
p4668
I6959
sVcrew
p4669
I2276
sVbetter
p4670
I6960
sVweighed
p4671
I3316
sVdifferently
p4672
I6962
sVcombination
p4673
I2278
sVoffroad
p4674
I6966
sVcaterpillar
p4675
I2279
sVglazed
p4676
I2280
sVmeat
p4677
I2281
sVventilation
p4678
I2282
sVpanini
p4679
I6968
sVairfrance
p4680
I2283
sVmotoring
p4681
I6969
sVroast
p4682
I2284
sVacoustic
p4683
I6971
sVwent
p4684
I6972
sVhigher
p4685
I4195
sVside
p4686
I4728
sVbone
p4687
I2287
sVluck
p4688
I6973
sVcalmly
p4689
I2288
sVadobe
p4690
I6974
sVcovered
p4691
I2516
sVenthusiasts
p4692
I6975
sVtaught
p4693
I5135
sVnavy
p4694
I2291
sVdawn
p4695
I6976
sVsking
p4696
I2293
sVenclosure
p4697
I6977
sVmerchants
p4698
I2294
sVvelvet
p4699
I5159
sVcontent
p4700
I6978
sVpatricks
p4701
I2296
sVreader
p4702
I5166
sVsurprise
p4703
I6979
sVsemitruck
p4704
I6980
sVgrease
p4705
I6981
sVturning
p4706
I6982
sVascending
p4707
I2298
sVcement
p4708
I4197
sVhoodie
p4709
I2299
sVbacklit
p4710
I2300
sVgreasy
p4711
I6987
sVaisle
p4712
I6988
sVshaggy
p4713
I6989
sVlogging
p4714
I6990
sVstarts
p4715
I6991
sVmessages
p4716
I4454
sVfiretrucks
p4717
I2303
sVmoving
p4718
I6993
sVboarders
p4719
I2305
sVuser
p4720
I6538
sVfeatures
p4721
I2308
sVgrade
p4722
I6995
sVhoop
p4723
I6996
sVunlit
p4724
I2309
sVwalkers
p4725
I2310
sVhook
p4726
I6997
sVfeatured
p4727
I2312
sVfloors
p4728
I6829
sVcomforter
p4729
I2314
sVditch
p4730
I2315
sVhoof
p4731
I6998
sVassortment
p4732
I1862
sVhood
p4733
I6999
sVhydrant
p4734
I7000
sVspinach
p4735
I7001
sVswaddled
p4736
I7002
sVstruts
p4737
I7003
sVgirls
p4738
I7004
sVtwisted
p4739
I7005
sVboating
p4740
I7006
sVhollywood
p4741
I2317
sVwieners
p4742
I2318
sVbouncing
p4743
I2319
sVgym
p4744
I2320
sVdigs
p4745
I2321
sVstreetlight
p4746
I394
sVstoic
p4747
I2322
sVsomewhat
p4748
I7007
sVtwostory
p4749
I1898
sVstocking
p4750
I7008
sVboarding
p4751
I5305
sVdistance
p4752
I2324
sVstructures
p4753
I4964
sVpreparation
p4754
I2326
sVmatter
p4755
I7011
sVfabulous
p4756
I3410
sVsilly
p4757
I7012
sVknights
p4758
I2327
sVmini
p4759
I2328
sVsees
p4760
I2329
sVpalace
p4761
I2330
sVchickens
p4762
I7444
sVmodern
p4763
I2331
sVginger
p4764
I2332
sVseed
p4765
I2333
sVseen
p4766
I2334
sVseem
p4767
I2335
sVmint
p4768
I7742
sVtells
p4769
I2336
sVstoplights
p4770
I2337
sVlinger
p4771
I4501
sVboaters
p4772
I7016
sVpanda
p4773
I1129
sVfitting
p4774
I2338
sVchess
p4775
I5386
sVsleeper
p4776
I2340
sVhoods
p4777
I5388
sVpanties
p4778
I5392
sVdavidson
p4779
I5393
sVbuggies
p4780
I7019
sVllamas
p4781
I2342
sVmashed
p4782
I2343
sVmemorabilia
p4783
I5409
sVmario
p4784
I2344
sVregular
p4785
I2345
sVassisting
p4786
I2348
sVdon
p4787
I2349
sVobservation
p4788
I2350
sVmedical
p4789
I7021
sVnighttime
p4790
I8829
sVdog
p4791
I2352
sVcompetitors
p4792
I2353
sVdefinitely
p4793
I8858
sVpointy
p4794
I7024
sVannoyed
p4795
I2354
sVdot
p4796
I2355
sVvisitor
p4797
I7026
sVending
p4798
I7027
sVattempts
p4799
I7028
sVsown
p4800
I5475
sVstepping
p4801
I7029
sVjudges
p4802
I7030
sVphotographic
p4803
I2358
sVfolded
p4804
I7031
sVsugar
p4805
I2359
sVcelery
p4806
I2360
sVjudged
p4807
I7032
sVfolks
p4808
I2361
sVfolder
p4809
I7033
sVwearing
p4810
I7034
sVtiles
p4811
I2363
sVcolorful
p4812
I8634
sVstop
p4813
I7036
sVcoast
p4814
I5540
sVcracks
p4815
I7313
sVwatermelon
p4816
I2365
sVtiled
p4817
I5547
sVpallets
p4818
I2366
sVbat
p4819
I7038
sVbar
p4820
I7039
sV17
p4821
I7040
sVfields
p4822
I7041
sVcroutons
p4823
I1133
sVbag
p4824
I7042
sVbad
p4825
I7043
sVdiscs
p4826
I2368
sVmints
p4827
I417
sVgrilled
p4828
I2369
sVgiraff
p4829
I2371
sVears
p4830
I5574
sVplaystation
p4831
I5575
sVfascinating
p4832
I2374
sVfluffy
p4833
I2375
sVtesting
p4834
I2376
sVzones
p4835
I7046
sVdecided
p4836
I5591
sVsubject
p4837
I2377
sVpebbles
p4838
I7047
sVsaid
p4839
I7048
sVscrap
p4840
I7049
sVsail
p4841
I5615
sVshaved
p4842
I5617
sVartificial
p4843
I2379
sVwetsuit
p4844
I5623
sVolympics
p4845
I7052
sVpets
p4846
I5629
sVsorts
p4847
I7053
sVlazy
p4848
I5636
sVwears
p4849
I2381
sVyachts
p4850
I7054
sVvitamin
p4851
I7055
sVlotion
p4852
I2382
sVhoused
p4853
I1755
sVmodeling
p4854
I7056
sVpicking
p4855
I7057
sVmaneuvers
p4856
I2383
sVagainst
p4857
I2384
sVscuba
p4858
I4976
sVbookcase
p4859
I5787
sVpeddling
p4860
I2385
sVstudio
p4861
I2386
sVwinnie
p4862
I5697
sVcobble
p4863
I8325
sVheight
p4864
I2387
sVhygiene
p4865
I7060
sVlanterns
p4866
I2388
sVloaded
p4867
I2389
sVtint
p4868
I2392
sVtins
p4869
I2393
sVputs
p4870
I5724
sVdusting
p4871
I7062
sVpatrolling
p4872
I2394
sVthree
p4873
I7063
sVerect
p4874
I5728
sVchatting
p4875
I2049
sVinterest
p4876
I1620
sVbasic
p4877
I2397
sVbasil
p4878
I2398
sVbasin
p4879
I5739
sVlovely
p4880
I2399
sVthrew
p4881
I406
sVwebsite
p4882
I2400
sVfirsbee
p4883
I7064
sVmushroom
p4884
I7065
sVgreyhound
p4885
I2401
sVsunshine
p4886
I7066
sVhouseplants
p4887
I2403
sVdecrepit
p4888
I2404
sVtapping
p4889
I7067
sValley
p4890
I2406
sVtank
p4891
I7069
sVreddish
p4892
I7070
sVsay
p4893
I8951
sVugly
p4894
I2408
sVlizard
p4895
I7071
sVmelted
p4896
I5780
sVneat
p4897
I7072
sVmotorist
p4898
I7258
sVaeroplane
p4899
I7073
sVbalance
p4900
I7074
sVanchor
p4901
I7075
sVchilling
p4902
I7076
sVmidjump
p4903
I2412
sVseven
p4904
I2413
sVcane
p4905
I2414
sVmetropolitan
p4906
I7077
sVmexico
p4907
I8834
sVis
p4908
I7078
sVsushi
p4909
I7079
sVsanitizer
p4910
I7080
sVit
p4911
I7081
sViv
p4912
I7082
sVii
p4913
I5802
sVcant
p4914
I2415
sVim
p4915
I7083
sVclinging
p4916
I7084
sVin
p4917
I7085
sVseattle
p4918
I5391
sVmouse
p4919
I2417
sVid
p4920
I7087
sVsever
p4921
I5816
sVif
p4922
I7088
sVgrown
p4923
I7089
sVpinning
p4924
I8993
sVbottles
p4925
I7090
sVlacking
p4926
I1873
sVoccupied
p4927
I7091
sVtucking
p4928
I7092
sVpolaroid
p4929
I2418
sVbottled
p4930
I5839
sVbelly
p4931
I2419
sVvegetable
p4932
I7093
sVfiltered
p4933
I2420
sVshoveling
p4934
I2421
sVsidelines
p4935
I7094
sVgrows
p4936
I7095
sVbells
p4937
I5850
sVmeets
p4938
I2422
sVbearded
p4939
I2423
sVscarfs
p4940
I2424
sVkit
p4941
I2425
sVdelight
p4942
I2426
sVrenaissance
p4943
I8119
sVsquat
p4944
I2648
sVgarlic
p4945
I2427
sVunicorn
p4946
I2428
sVkid
p4947
I2429
sVbutter
p4948
I2430
sVsmokey
p4949
I2706
sVfailing
p4950
I2431
sVsmokes
p4951
I7101
sVbedspread
p4952
I2432
sVdirectly
p4953
I2433
sVpractices
p4954
I5885
sVflops
p4955
I2436
sVleft
p4956
I7103
sVjust
p4957
I7104
sVsporting
p4958
I7105
sVfighters
p4959
I2437
sVhuman
p4960
I2438
sVyes
p4961
I2439
sVtattooed
p4962
I2440
sVyet
p4963
I2441
sVsunflower
p4964
I7106
sVcharacter
p4965
I5876
sVcontestant
p4966
I2445
sVsave
p4967
I2446
sVtrimming
p4968
I2447
sVsailors
p4969
I2448
sVinterior
p4970
I7108
sVbackground
p4971
I7110
sVforested
p4972
I2449
sVmargherita
p4973
I2450
sVdepicts
p4974
I7111
sVglassware
p4975
I7330
sVhatchback
p4976
I2451
sVvanity
p4977
I7113
sVshoulder
p4978
I2452
sVnude
p4979
I2453
sVperforming
p4980
I2454
sVmanual
p4981
I7114
sVzombies
p4982
I2456
sVoncoming
p4983
I1879
sVclementine
p4984
I7117
sVdeal
p4985
I2458
sVdead
p4986
I6007
sVplatters
p4987
I2461
sVvaulted
p4988
I2462
sVdear
p4989
I2463
sVstraightening
p4990
I7118
sVdense
p4991
I7119
sVpail
p4992
I5439
sVfloaters
p4993
I6026
sVcarts
p4994
I2465
sVskateboarded
p4995
I2466
sVdaytime
p4996
I7120
sVonlooking
p4997
I2468
sVskateboarder
p4998
I2470
sVtartar
p4999
I7121
sVbold
p5000
I7122
sVdunkin
p5001
I7123
sVmicrowaves
p5002
I4994
sVburn
p5003
I7124
sVpopular
p5004
I1881
sVfiremen
p5005
I7125
sVkeeper
p5006
I7126
sVsuper
p5007
I6074
sVoreo
p5008
I2473
sVyelling
p5009
I7128
sVribs
p5010
I2474
sVvalentines
p5011
I2475
sVmagazine
p5012
I2476
sVcrucifix
p5013
I6097
sVindians
p5014
I7129
sVwhats
p5015
I6114
sVsubs
p5016
I2478
sVselfie
p5017
I2479
sVwintery
p5018
I2480
sVrearview
p5019
I7130
sVcommuters
p5020
I7131
sVlies
p5021
I6134
sVcarving
p5022
I2481
sVcones
p5023
I2482
sVweathered
p5024
I7134
sVtennis
p5025
I4037
sVinspected
p5026
I2486
sVpages
p5027
I4996
sVbodies
p5028
I5298
sVfork
p5029
I6178
sVform
p5030
I7135
sVforks
p5031
I7136
sVfoilage
p5032
I7137
sVbatman
p5033
I2488
sVfireworks
p5034
I7138
sVlanding
p5035
I2489
sVford
p5036
I7139
sVmarinara
p5037
I7140
sVpenned
p5038
I7141
sVdiaper
p5039
I2491
sVfort
p5040
I7142
sVlilies
p5041
I2492
sVpavilion
p5042
I7144
sVhikers
p5043
I7145
sVattached
p5044
I7146
sVbounds
p5045
I6208
sVlorry
p5046
I5800
sVwhiskey
p5047
I2494
sVtangerines
p5048
I2495
sVstages
p5049
I7148
sVsticks
p5050
I7150
sVclassic
p5051
I7151
sVtoss
p5052
I7152
sVcovers
p5053
I7153
sVsale
p5054
I4999
sVfashioned
p5055
I7155
sVmuffins
p5056
I2497
sVfloating
p5057
I6414
sVcushioned
p5058
I5000
sVcommuting
p5059
I7156
sVshit
p5060
I7157
sVvista
p5061
I7158
sVleafless
p5062
I2500
sVclings
p5063
I2501
sVhanded
p5064
I7159
sVdigital
p5065
I7161
sVwarehouse
p5066
I2502
sVribbons
p5067
I7163
sVgarland
p5068
I2503
sVhandicap
p5069
I2505
sVfelt
p5070
I7165
sVdiet
p5071
I7166
sVgrassland
p5072
I7345
sVfell
p5073
I7168
sVpizzas
p5074
I7169
sVuneaten
p5075
I7170
sVjones
p5076
I1387
sVoutskirts
p5077
I6309
sVpotato
p5078
I2508
sVdaily
p5079
I7171
sVjacket
p5080
I2509
sVgorilla
p5081
I6324
sVteeth
p5082
I2510
sVmeander
p5083
I2511
sVrestored
p5084
I2512
sVthemed
p5085
I7172
sVwoodwork
p5086
I7173
sVskis
p5087
I7174
sVwalking
p5088
I5003
sVskii
p5089
I7175
sVmanager
p5090
I2515
sVmile
p5091
I7177
sVskim
p5092
I6355
sVskin
p5093
I7178
sVmill
p5094
I7179
sVabundant
p5095
I7180
sVmilk
p5096
I2892
sVconditioner
p5097
I188
sVanticipation
p5098
I2517
sVyummy
p5099
I7181
sVpouch
p5100
I1381
sVtechnique
p5101
I6370
sVfather
p5102
I2518
sVbordered
p5103
I7183
sVmarks
p5104
I7184
sVme
p5105
I8144
sVsmartphone
p5106
I2520
sVstring
p5107
I7186
sVcongratulating
p5108
I2521
sVtacos
p5109
I2522
sVforked
p5110
I6408
sVstting
p5111
I2525
sVdim
p5112
I7189
sVstaples
p5113
I7190
sVlimes
p5114
I7191
sVdid
p5115
I7192
sVdie
p5116
I7193
sVdig
p5117
I7194
sVkeepers
p5118
I2527
sVbikers
p5119
I8518
sVitem
p5120
I6427
sVbrownish
p5121
I7196
sVdip
p5122
I7198
sVround
p5123
I2528
sVdrawings
p5124
I2663
sVshave
p5125
I7200
sVolympic
p5126
I7201
sVseasoning
p5127
I8740
sVcopy
p5128
I4701
sVliterature
p5129
I4196
sVworm
p5130
I5804
sVrun
p5131
I6568
sVskiiers
p5132
I2530
sVadds
p5133
I2531
sVvandalized
p5134
I6488
sVinternational
p5135
I2532
sVgazebo
p5136
I8710
sVbookshelves
p5137
I7203
sVfilled
p5138
I2534
sVtransportation
p5139
I7204
sVmussels
p5140
I2535
sVmakeup
p5141
I2536
sVfrench
p5142
I7206
sVtusked
p5143
I2537
sVfrosting
p5144
I2538
sVrue
p5145
I6572
sVelegantly
p5146
I5808
sVwait
p5147
I7209
sVbox
p5148
I2539
sVboy
p5149
I2540
sVcuckoo
p5150
I2542
sVcanadian
p5151
I7210
sVshift
p5152
I6523
sVbot
p5153
I2545
sVbow
p5154
I2547
sVtrinkets
p5155
I7934
sVbob
p5156
I2548
sVbruised
p5157
I2904
sVbog
p5158
I2549
sVteenage
p5159
I2550
sVadjustable
p5160
I2551
sVuseful
p5161
I7213
sVkayak
p5162
I2552
sVlamppost
p5163
I7215
sVhotels
p5164
I2554
sVsweating
p5165
I2555
sVairstrip
p5166
I5811
sVlockers
p5167
I6576
sVthre
p5168
I7217
sVdude
p5169
I5668
sVfrance
p5170
I7218
sVinsides
p5171
I7219
sVcreamy
p5172
I6582
sVthru
p5173
I7220
sVcheckout
p5174
I7221
sVsharing
p5175
I8840
sV<S>
p5176
I9219
sVphillies
p5177
I7222
sVdowntown
p5178
I7223
sVtandem
p5179
I6609
sVolive
p5180
I7224
sVeffort
p5181
I7225
sVblinds
p5182
I1520
sVbushels
p5183
I2560
sVfly
p5184
I7226
sVwalled
p5185
I7227
sVthermos
p5186
I7228
sVtokyo
p5187
I858
sVdeformed
p5188
I6626
sVavoiding
p5189
I7229
sVsoul
p5190
I7230
sVsoup
p5191
I337
sVsour
p5192
I7232
sVdrags
p5193
I2561
sVgrowing
p5194
I7233
sVmaking
p5195
I2562
sVarrive
p5196
I7234
sVbites
p5197
I7235
sVclaim
p5198
I2123
sVcrazy
p5199
I7237
sVjetliner
p5200
I3444
sVconfused
p5201
I2565
sVsample
p5202
I2566
sVdrawer
p5203
I7239
sVbattered
p5204
I6664
sVspanning
p5205
I2567
sVpink
p5206
I7242
sVrays
p5207
I7243
sVnecklaces
p5208
I6678
sVwindowed
p5209
I429
sVping
p5210
I7244
sVpine
p5211
I7245
sVsunday
p5212
I7246
sVskater
p5213
I7247
sVskates
p5214
I7248
sVtile
p5215
I7249
sVpathway
p5216
I7250
sVpint
p5217
I6691
sVloaves
p5218
I6693
sVmap
p5219
I2570
sVstaying
p5220
I7251
sVdesigner
p5221
I7252
sVmat
p5222
I2571
sVmay
p5223
I6701
sVfed
p5224
I7763
sVaccessory
p5225
I7253
sVmac
p5226
I2573
sVdesigned
p5227
I6712
sVtablecloth
p5228
I2575
sVguys
p5229
I7255
sVgrow
p5230
I7256
sVman
p5231
I6718
sVpins
p5232
I6686
sVneck
p5233
I7015
sVmaybe
p5234
I7259
sVtale
p5235
I2578
sVswitch
p5236
I6744
sVjail
p5237
I7262
sVafrican
p5238
I7263
sVbiplane
p5239
I7264
sVtall
p5240
I2580
sVgesture
p5241
I7265
sVnearly
p5242
I2673
sVcute
p5243
I7266
sVshield
p5244
I6762
sVentryway
p5245
I6765
sVpointed
p5246
I7268
sVterrace
p5247
I7269
sVcuts
p5248
I7270
sVmarshmallows
p5249
I7271
sVdimlylit
p5250
I2584
sVgroup
p5251
I6483
sVmonitor
p5252
I2586
sVlieing
p5253
I2587
sVinteresting
p5254
I2588
sVmaid
p5255
I7275
sVcoaching
p5256
I7276
sVlisting
p5257
I2589
sVmail
p5258
I7277
sVmain
p5259
I1153
sVtexas
p5260
I7278
sVtucked
p5261
I2590
sVviews
p5262
I7279
sVlunch
p5263
I2592
sVtouching
p5264
I7280
sVmarkings
p5265
I2593
sVmismatched
p5266
I7281
sVsafari
p5267
I2594
sVfudge
p5268
I5819
sVsettings
p5269
I2214
sVarrows
p5270
I2597
sVrock
p5271
I2598
sVshowcasing
p5272
I2599
sVnick
p5273
I4263
sVelephants
p5274
I2600
sVmalaysian
p5275
I2679
sVsignage
p5276
I6866
sVgirl
p5277
I7286
sVelizabeth
p5278
I2602
sVcanada
p5279
I2603
sVliving
p5280
I7288
sVjackson
p5281
I6878
sV3rd
p5282
I2605
sVrolls
p5283
I2608
sVdutch
p5284
I2609
sVpizzeria
p5285
I2610
sVsensor
p5286
I2611
sVcorrect
p5287
I7290
sVafter
p5288
I9186
sVmonster
p5289
I7291
sVsideways
p5290
I2613
sVpumping
p5291
I4552
sVwalnuts
p5292
I7292
sVscreaming
p5293
I7293
sVcalifornia
p5294
I7294
sVvinyl
p5295
I6926
sVajar
p5296
I2614
sVheadband
p5297
I4541
sVunderwear
p5298
I7296
sVcarnival
p5299
I2616
sVwaiter
p5300
I2617
sVdrizzling
p5301
I7298
sVheadphones
p5302
I2618
sVthing
p5303
I6947
sVfunky
p5304
I2619
sVjumping
p5305
I3452
sVpepperoni
p5306
I7299
sVpleasant
p5307
I7605
sVthink
p5308
I2621
sVfirst
p5309
I2622
sVexotic
p5310
I7301
sVcheese
p5311
I2623
sVdwelling
p5312
I7302
sVlone
p5313
I4240
sVcrib
p5314
I1867
sVnativity
p5315
I7304
sVamericans
p5316
I7305
sVfast
p5317
I8938
sVsuspended
p5318
I2624
sVcarry
p5319
I7306
sVcheesy
p5320
I2625
sVlittle
p5321
I2626
sVmurky
p5322
I2628
sVslept
p5323
I7309
sVanyone
p5324
I2629
sVplains
p5325
I7310
sVescort
p5326
I7312
sVspeaking
p5327
I2631
sVmeme
p5328
I2633
sVeyes
p5329
I2634
sVharbour
p5330
I4167
sVeyed
p5331
I2635
sVbutt
p5332
I2636
sVseat
p5333
I2683
sVceramics
p5334
I2637
sV11
p5335
I2638
sV10
p5336
I2639
sV13
p5337
I2640
sV12
p5338
I2641
sV15
p5339
I2642
sV14
p5340
I7037
sVsailing
p5341
I8104
sV18
p5342
I7044
sVbrowning
p5343
I7314
sVav
p5344
I8574
sVvictorian
p5345
I7315
sVprotected
p5346
I4766
sVknives
p5347
I7316
sVwere
p5348
I7317
sVgigantic
p5349
I7058
sVstrolls
p5350
I2643
sVtractor
p5351
I7318
sVgathering
p5352
I2844
sVlick
p5353
I2644
sVdollop
p5354
I7321
sVoccupies
p5355
I7322
sVmarijuana
p5356
I7323
sVdash
p5357
I7324
sVwinding
p5358
I7325
sVhighrise
p5359
I1903
sVpastry
p5360
I2646
sVmonochrome
p5361
I2647
sVmitts
p5362
I7326
sVspeakers
p5363
I7096
sVhooded
p5364
I7149
sVencompassing
p5365
I1183
sVefficient
p5366
I2649
sVanswering
p5367
I7328
sVshocked
p5368
I2650
sVpotential
p5369
I7107
sVcreatively
p5370
I7329
sVperformance
p5371
I2651
sVpersonalized
p5372
I7112
sVswitching
p5373
I7115
sVchannel
p5374
I7331
sVultimate
p5375
I2653
sVwilted
p5376
I7332
sVskinned
p5377
I7333
sVpain
p5378
I7334
sVtheatre
p5379
I6585
sVnormal
p5380
I7335
sVtrack
p5381
I7336
sVcheesecake
p5382
I3827
sVpaid
p5383
I7337
sVsheets
p5384
I2655
sVpair
p5385
I7132
sVtugging
p5386
I2656
sVqueens
p5387
I2657
sVbeachfront
p5388
I7338
sVespecially
p5389
I7339
sVfills
p5390
I7340
sVgyro
p5391
I7341
sVnapkin
p5392
I7342
sVlama
p5393
I3179
sVgracefully
p5394
I7343
sVorder
p5395
I7344
sVstockings
p5396
I7167
sVshop
p5397
I2659
sVshot
p5398
I2660
sVreef
p5399
I2661
sVshow
p5400
I7182
sVdelta
p5401
I4275
sVcontemporary
p5402
I7347
sVcorned
p5403
I7188
sVbedside
p5404
I7195
sVshoe
p5405
I7199
sVcorner
p5406
I2664
sVladle
p5407
I7562
sVcurled
p5408
I7349
sVenthusiast
p5409
I2665
sVdice
p5410
I2666
sVstormy
p5411
I2667
sVplume
p5412
I7211
sVdick
p5413
I2668
sVcheeseburger
p5414
I7350
sVbehind
p5415
I7364
sVblack
p5416
I7353
sVdeployed
p5417
I8945
sVbureau
p5418
I5026
sVplums
p5419
I2670
sVplump
p5420
I2671
sVhippo
p5421
I7238
sVget
p5422
I2672
sVdesignated
p5423
I7355
sVspraying
p5424
I7356
sVframing
p5425
I7357
sVuninstalled
p5426
I2675
sVblends
p5427
I2676
sVfrolicking
p5428
I2678
sVkeyboards
p5429
I7282
sVmedian
p5430
I7358
sVyield
p5431
I7359
sVmorning
p5432
I7287
sVmiles
p5433
I2680
sVsource
p5434
I3073
sVlondon
p5435
I3463
sVfinishing
p5436
I7295
sVflamingos
p5437
I2681
sVmilling
p5438
I7307
sVunbaked
p5439
I6398
sVblurred
p5440
I7362
sVseal
p5441
I2685
sVcalendar
p5442
I7363
sVwonder
p5443
I2686
sVcamping
p5444
I2687
sVornament
p5445
I2688
sVlabel
p5446
I7348
sVpump
p5447
I7351
sVchews
p5448
I7365
sVgeometric
p5449
I7366
sVreading
p5450
I7367
sVchecks
p5451
I7368
sVoversized
p5452
I7369
sVtux
p5453
I7370
sVcampaign
p5454
I6927
sVparent
p5455
I7371
sVtub
p5456
I7372
sVtug
p5457
I7388
sV787
p5458
I2692
sVrugby
p5459
I7373
sVtuck
p5460
I7396
sVaccording
p5461
I7374
sVrestroom
p5462
I8081
sVtour
p5463
I2693
sVpatrons
p5464
I7376
sVdated
p5465
I7377
sVreigns
p5466
I5036
sVholders
p5467
I7378
sVamong
p5468
I2695
sVstretches
p5469
I722
sVrecreational
p5470
I7379
sVshirt
p5471
I4191
sVcutup
p5472
I2696
sVcabinetry
p5473
I2697
sVmaintained
p5474
I7380
sVstretched
p5475
I7381
sVspans
p5476
I2698
sVpacifier
p5477
I2699
sVnose
p5478
I7762
sVmare
p5479
I7382
sVunusual
p5480
I7449
sVcaricature
p5481
I7384
sVcapable
p5482
I2701
sVmark
p5483
I7465
sVattaching
p5484
I2703
sVworkshop
p5485
I2704
sVshakers
p5486
I2705
sVborders
p5487
I7387
sVmary
p5488
I7389
sVspare
p5489
I7390
sVgraveyard
p5490
I7391
sVoffered
p5491
I7392
sVsquash
p5492
I2707
sVlaptops
p5493
I2708
sVdramatic
p5494
I2710
sVwake
p5495
I2711
sVbmw
p5496
I7393
sVthose
p5497
I7394
sVsound
p5498
I2712
sVstacked
p5499
I7395
sVratchet
p5500
I3607
sVcoca
p5501
I2713
sVresidence
p5502
I5040
sVcoco
p5503
I2714
sVbeachside
p5504
I3525
sVcock
p5505
I2716
sVbathe
p5506
I7398
sVbathrooms
p5507
I7399
sVeventually
p5508
I7401
sVrubbing
p5509
I7402
sVthem
p5510
I5841
sVsleeping
p5511
I2717
sVstrain
p5512
I2718
sVpressing
p5513
I4208
sVreleases
p5514
I3800
sVdangerously
p5515
I7557
sVferns
p5516
I7404
sVprotein
p5517
I2719
sVbags
p5518
I7405
sVdifferent
p5519
I1369
sVpat
p5520
I7406
sVsporty
p5521
I4225
sVdoctor
p5522
I274
sVpay
p5523
I7407
sVwoodland
p5524
I2721
sVmulticolor
p5525
I7375
sVlava
p5526
I2722
sVbowels
p5527
I5295
sVtriumphantly
p5528
I2724
sVstepped
p5529
I7410
sVcotton
p5530
I6595
sVpan
p5531
I9049
sVexhaust
p5532
I7595
sVoil
p5533
I2346
sVrainbow
p5534
I4256
sVcommode
p5535
I2730
sVassist
p5536
I2731
sVmunch
p5537
I7413
sVcompanion
p5538
I2732
sVrunning
p5539
I7607
sVstairwell
p5540
I7415
sVmotorcade
p5541
I2733
sVclimbing
p5542
I2734
sVtotally
p5543
I7416
sVbreak
p5544
I6970
sVdrain
p5545
I7417
sVlargely
p5546
I2735
sVdoves
p5547
I7025
sVspoonful
p5548
I7643
sVbicyclists
p5549
I7418
sVbottle
p5550
I7419
sVbumping
p5551
I2736
sV</S>
p5552
I9220
sVamazed
p5553
I7420
sValfalfa
p5554
I2737
sVgates
p5555
I7421
sVoutdoor
p5556
I2738
sVmoney
p5557
I2739
sVfueling
p5558
I697
sVgriddle
p5559
I2740
sVgated
p5560
I7422
sVflavor
p5561
I2741
sVdipped
p5562
I7423
sVapplication
p5563
I1911
sVmcdonald
p5564
I7425
sVpoliticians
p5565
I6597
sVbeagle
p5566
I7426
sVpile
p5567
I2744
sV4
p5568
I7427
sVgrating
p5569
I7428
sVextensive
p5570
I7697
sVpegs
p5571
I7429
sVpill
p5572
I2745
sVgrip
p5573
I2746
sVsticky
p5574
I7154
sVdocks
p5575
I7431
sVmop
p5576
I3799
sVgrid
p5577
I2747
sVmom
p5578
I7432
sVrailroad
p5579
I7976
sVaiming
p5580
I7433
sVblankets
p5581
I7434
sVgrin
p5582
I2749
sVrocky
p5583
I7532
sVvertically
p5584
I2750
sVvending
p5585
I2751
sVoxygen
p5586
I5848
sVserves
p5587
I2752
sVpandas
p5588
I6599
sVfacing
p5589
I2754
sVchamber
p5590
I7435
sVaudience
p5591
I7436
sVlaughing
p5592
I8733
sVdrainage
p5593
I7437
sVserved
p5594
I2755
sVbuidling
p5595
I2756
sVsneaker
p5596
I2757
sVdoll
p5597
I7439
sVascend
p5598
I2758
sVdole
p5599
I7440
sVmeanders
p5600
I7441
sVerase
p5601
I7782
sVimages
p5602
I2759
sVpasture
p5603
I2760
sVascent
p5604
I2761
sVmatching
p5605
I2762
sVusers
p5606
I4268
sVgross
p5607
I7443
sVouts
p5608
I2765
sVcolonial
p5609
I4630
sVoverly
p5610
I7797
sVexpressing
p5611
I7445
sVpipes
p5612
I2767
sVlinoleum
p5613
I2768
sVknife
p5614
I2769
sVmeasuring
p5615
I3041
sVraincoat
p5616
I2770
sVunopened
p5617
I2526
sVbroken
p5618
I7450
sVdrums
p5619
I7451
sVroaming
p5620
I7452
sVcrafting
p5621
I2772
sVstations
p5622
I7453
sVisland
p5623
I7454
sVinsect
p5624
I3078
sVmixer
p5625
I2773
sVmixes
p5626
I2774
sVdemonic
p5627
I2775
sVairline
p5628
I7457
sVpockets
p5629
I2776
sVtoothpaste
p5630
I2777
sVmixed
p5631
I2778
sVroad
p5632
I7459
sVuhaul
p5633
I2779
sVlands
p5634
I7461
sVwhites
p5635
I7462
sVspreading
p5636
I7463
sVskilled
p5637
I2781
sVairlines
p5638
I2782
sVharness
p5639
I2783
sVstrip
p5640
I2784
sVfeeders
p5641
I2702
sVsprings
p5642
I7061
sVpastures
p5643
I2786
sVparaphernalia
p5644
I2787
sVdowned
p5645
I5096
sVdisco
p5646
I7466
sVstyling
p5647
I7467
sVappears
p5648
I6060
sVlions
p5649
I7468
sVearphones
p5650
I1918
sVpretends
p5651
I2788
sVtrey
p5652
I4824
sVspicy
p5653
I2789
sVenough
p5654
I2689
sVbuggy
p5655
I7469
sVstrikes
p5656
I2790
sVsophisticated
p5657
I2791
sVrancher
p5658
I7386
sVwiping
p5659
I7471
sVbookstore
p5660
I7472
sVwalkway
p5661
I3778
sVdownstairs
p5662
I2792
sVspice
p5663
I2793
sVcacti
p5664
I7473
sVarranged
p5665
I2794
sVpacman
p5666
I2795
sVstrawberry
p5667
I7475
sVarranges
p5668
I2796
sVpeeking
p5669
I2797
sVnetting
p5670
I7476
sVsuitcase
p5671
I7477
sVaffection
p5672
I7478
sVrailed
p5673
I3480
sVvideos
p5674
I7479
sVrapids
p5675
I2800
sVdeer
p5676
I2801
sVdeep
p5677
I2802
sVgeneral
p5678
I2803
sVexamine
p5679
I2804
sVfile
p5680
I2806
sVgirlfriend
p5681
I7481
sVshopping
p5682
I7482
sVhound
p5683
I7483
sVcables
p5684
I7484
sVfilm
p5685
I8000
sVfill
p5686
I2808
sVagain
p5687
I2809
sVpensive
p5688
I8009
sVpersonnel
p5689
I2810
sVfloored
p5690
I2811
sVhybrid
p5691
I7485
sVfield
p5692
I7486
sVrollerblading
p5693
I7488
sVoutfield
p5694
I7489
sVlapel
p5695
I7490
sVhey
p5696
I3230
sVstudents
p5697
I7491
sVdecorates
p5698
I2812
sVimportant
p5699
I8044
sVdecorated
p5700
I2814
sVawkwardly
p5701
I7492
sVremote
p5702
I7493
sVunload
p5703
I7494
sVcasts
p5704
I7495
sVroams
p5705
I7496
sVsewer
p5706
I2815
sVu
p5707
I2816
sVresembles
p5708
I2817
sVhusky
p5709
I5526
sVstarting
p5710
I7497
sVrepresent
p5711
I7498
sVdiesel
p5712
I5858
sVsuburban
p5713
I7499
sVdollar
p5714
I2818
sVworms
p5715
I2819
sVvessels
p5716
I5860
sVtalks
p5717
I7501
sVexpressions
p5718
I2820
sVbriefcases
p5719
I2821
sVshattered
p5720
I2822
sVpreserver
p5721
I2823
sVformer
p5722
I461
sVshredding
p5723
I2824
sVcaptivity
p5724
I7503
sVhooks
p5725
I4279
sVenjoying
p5726
I2825
sVpuffs
p5727
I2826
sVturnips
p5728
I2827
sVsitting
p5729
I2828
sVpuffy
p5730
I2829
sVscout
p5731
I7505
sVfall
p5732
I7506
sVwinning
p5733
I2830
sVsurfboarder
p5734
I2831
sVramen
p5735
I2832
sVnewly
p5736
I3486
sValien
p5737
I4280
sVwashing
p5738
I2834
sVmothers
p5739
I7507
sVcelebrity
p5740
I7508
sVarts
p5741
I7383
sVintricately
p5742
I3345
sVearbuds
p5743
I7509
sV20th
p5744
I2835
sVtitled
p5745
I7510
sVportable
p5746
I2836
sVgrabs
p5747
I2837
sVknitted
p5748
I7511
sVstrung
p5749
I2839
sVperspective
p5750
I2840
sVfurther
p5751
I7513
sVappreciating
p5752
I2841
sVribbon
p5753
I7514
sVcreatures
p5754
I2842
sVpropellors
p5755
I7515
sVdial
p5756
I7516
sVswampy
p5757
I2843
sVstood
p5758
I8256
sVwrecked
p5759
I2845
sVstool
p5760
I7519
sVstoop
p5761
I7520
sVfixings
p5762
I2848
sVpublic
p5763
I2849
sVmovement
p5764
I8252
sVtattoos
p5765
I7523
sVvideogame
p5766
I2850
sVcarseat
p5767
I2851
sVbowtie
p5768
I2852
sVmule
p5769
I2853
sVranges
p5770
I7526
sVsqueezed
p5771
I2854
sVbeacon
p5772
I7527
sVcylindrical
p5773
I7528
sVoperating
p5774
I7529
sVaffectionately
p5775
I2855
sVinvestigating
p5776
I2715
sVsunning
p5777
I6657
sVsearch
p5778
I7530
sVbible
p5779
I8315
sVtortoise
p5780
I7531
sVstretching
p5781
I8321
sVstorefront
p5782
I5658
sVsofas
p5783
I2857
sVairport
p5784
I7533
sVlasagna
p5785
I2858
sVnarrow
p5786
I7534
sVmilks
p5787
I7535
sVsplashes
p5788
I3489
sVwhimsical
p5789
I2859
sVpeering
p5790
I3857
sVbuses
p5791
I7536
sVcaravan
p5792
I2860
sVtransit
p5793
I7537
sVafrica
p5794
I2861
sVemptied
p5795
I2862
sVarmed
p5796
I8356
sVdachshund
p5797
I2863
sVeye
p5798
I2864
sVoclock
p5799
I6462
sVdistinct
p5800
I7539
sVwiped
p5801
I2865
sVplastered
p5802
I2866
sVtexting
p5803
I2867
sVtwo
p5804
I2868
sVdamaged
p5805
I7542
sVcomparing
p5806
I2869
sVtwp
p5807
I2870
sVtacks
p5808
I2871
sVamenities
p5809
I2872
sVraft
p5810
I8380
sVwipes
p5811
I2873
sVpawing
p5812
I2874
sVdiamond
p5813
I7543
sVcaboose
p5814
I2875
sVpurse
p5815
I2876
sVlanded
p5816
I2877
sVcontrolling
p5817
I7544
sVlemons
p5818
I8403
sVsuite
p5819
I4359
sVnineteen
p5820
I7546
sVkaraoke
p5821
I2881
sVtown
p5822
I7547
sVnone
p5823
I7548
sVopenfaced
p5824
I7549
sVhour
p5825
I2882
sVmiddle
p5826
I7403
sVdew
p5827
I7552
sVguards
p5828
I2883
sVremain
p5829
I8614
sVescorted
p5830
I2884
sVdel
p5831
I7553
sVden
p5832
I3475
sVabandon
p5833
I2885
sVstemware
p5834
I7554
sVtows
p5835
I7555
sVladys
p5836
I2886
sVshark
p5837
I6189
sVoverhang
p5838
I2887
sVhamburger
p5839
I7556
sVstacking
p5840
I7558
sVshare
p5841
I8453
sVcollision
p5842
I7559
sVnumbers
p5843
I2888
sVpurchased
p5844
I7560
sVsharp
p5845
I7561
sVneeds
p5846
I2889
sVawkward
p5847
I2890
sVplans
p5848
I5221
sVcomfort
p5849
I2891
sVmaps
p5850
I2894
sVstir
p5851
I2895
sVensemble
p5852
I2896
sVfrilly
p5853
I7563
sVcharms
p5854
I7564
sVsoda
p5855
I3494
sVbreasted
p5856
I4895
sVblood
p5857
I7565
sVcoming
p5858
I2897
sVbloom
p5859
I7566
sVbleak
p5860
I7567
sVchute
p5861
I2898
sVorchard
p5862
I7568
sVcrowded
p5863
I2899
sVcoat
p5864
I7569
sVtoiletries
p5865
I2900
sVpaw
p5866
I8961
sVeats
p5867
I7570
sVbathed
p5868
I7571
sVdragon
p5869
I2901
sVdeserted
p5870
I8024
sVcoal
p5871
I7572
sVwishes
p5872
I1978
sVpleasure
p5873
I7573
sVplaying
p5874
I2902
sVinfant
p5875
I7574
sVrounded
p5876
I7575
sVwinged
p5877
I2903
sVindustrial
p5878
I7848
sVthrough
p5879
I2905
sVsame
p5880
I7408
sV24
p5881
I2906
sV25
p5882
I4921
sVarial
p5883
I2908
sV22
p5884
I4951
sVhandheld
p5885
I7580
sVlate
p5886
I7581
sVdolly
p5887
I7582
sVspeech
p5888
I2723
sVpesto
p5889
I2909
sVcrawls
p5890
I7584
sVdolls
p5891
I7585
sVlookout
p5892
I8182
sVsomeone
p5893
I7586
sVmonorail
p5894
I3412
sVmales
p5895
I7587
sVdetour
p5896
I8607
sVwalls
p5897
I7588
sVcompound
p5898
I2910
sVstruggling
p5899
I7589
sVmystery
p5900
I2911
sVeasily
p5901
I8633
sVhuddle
p5902
I2912
sVchairlift
p5903
I7590
sVpregnant
p5904
I7591
sVasparagus
p5905
I6625
sVgoofy
p5906
I7592
sVbiscuits
p5907
I7593
sVnuzzle
p5908
I5071
sVclams
p5909
I1722
sVchopper
p5910
I5869
sVoin
p5911
I2727
sVmichael
p5912
I1944
sVfish
p5913
I222
sVhard
p5914
I2916
sVberet
p5915
I7650
sVengaging
p5916
I2917
sVextended
p5917
I2728
sVconnect
p5918
I8667
sVfist
p5919
I2919
sVscissors
p5920
I5616
sVbackpacks
p5921
I7598
sVcomic
p5922
I5870
sVflower
p5923
I8680
sVtrooper
p5924
I2920
sVpigeon
p5925
I7599
sVprojected
p5926
I7600
sVparticipants
p5927
I7601
sVgranola
p5928
I5599
sVprint
p5929
I9092
sVforeground
p5930
I2921
sVunidentifiable
p5931
I2922
sVtelephones
p5932
I4710
sVcrouched
p5933
I2923
sVsquished
p5934
I7602
sVseagulls
p5935
I7603
sVbulls
p5936
I7604
sVgeared
p5937
I8731
sVsignal
p5938
I2457
sVcrouches
p5939
I2926
sVmembers
p5940
I2927
sVbacked
p5941
I2928
sVbeginning
p5942
I2929
sVfaucet
p5943
I2930
sVneeding
p5944
I2931
sVinbetween
p5945
I7414
sVdribbles
p5946
I7608
sVcorkscrew
p5947
I8763
sVbarber
p5948
I2933
sVpilots
p5949
I7610
sVcopper
p5950
I2934
sVdont
p5951
I2935
sVtreetops
p5952
I2936
sVshapped
p5953
I2937
sVdone
p5954
I2938
sVantiques
p5955
I3502
sVcampground
p5956
I7614
sVcups
p5957
I7616
sVprecariously
p5958
I8790
sVrazor
p5959
I2939
sVtwenty
p5960
I7617
sV5th
p5961
I7618
sVjetty
p5962
I2941
sVleast
p5963
I2942
sVpaint
p5964
I7620
sVleash
p5965
I2943
sVstatement
p5966
I3359
sVmama
p5967
I7622
sVbooster
p5968
I476
sVmuscles
p5969
I8820
sVpara
p5970
I2945
sVdrapes
p5971
I2946
sVneedle
p5972
I7624
sVpark
p5973
I2948
sVdraped
p5974
I480
sVdentist
p5975
I2950
sVpart
p5976
I5092
sVdoctors
p5977
I8836
sVobstructed
p5978
I2953
sVstirs
p5979
I7625
sVpeaked
p5980
I8843
sVb
p5981
I7626
sVgotten
p5982
I7628
sVcolander
p5983
I7629
sVinteractive
p5984
I7630
sVbassinet
p5985
I2956
sVcurtains
p5986
I2957
sVages
p5987
I7632
sVaged
p5988
I7634
sVfading
p5989
I7635
sVbackseat
p5990
I7636
sVpaths
p5991
I7637
sVcardigan
p5992
I7638
sVbuilt
p5993
I7639
sVdancing
p5994
I7640
sVcouch
p5995
I2960
sVlifts
p5996
I2961
sVbuild
p5997
I8917
sVrafters
p5998
I2962
sVzucchini
p5999
I2963
sVfolders
p6000
I7642
sVserene
p6001
I2964
sVleaking
p6002
I3510
sVeggs
p6003
I2966
sVsalmon
p6004
I2967
sVchart
p6005
I2968
sVserviced
p6006
I2969
sVmost
p6007
I2970
sVcharm
p6008
I2971
sVmoss
p6009
I2972
sVservices
p6010
I2973
sVextremely
p6011
I2975
sVrefrigerator
p6012
I7644
sVfeasting
p6013
I2976
sVdrifts
p6014
I2978
sVcramped
p6015
I7645
sVreflections
p6016
I2979
sVpomegranates
p6017
I7647
sVjoining
p6018
I4474
sVmidflight
p6019
I5460
sVthomas
p6020
I7649
sVsparrow
p6021
I2980
sVscattered
p6022
I7651
sVhugging
p6023
I7652
sVperches
p6024
I7653
sVhillside
p6025
I7654
sVcrocheted
p6026
I2981
sVbusinesses
p6027
I2982
sVcarefully
p6028
I7655
sVfine
p6029
I7656
sVfind
p6030
I8976
sVgiant
p6031
I7657
sVdividing
p6032
I7658
sVunhappy
p6033
I2983
sVexperiment
p6034
I6636
sV8
p6035
I2984
sVboulder
p6036
I7660
sVmein
p6037
I2985
sVexpress
p6038
I2986
sVtoddlers
p6039
I2987
sVferret
p6040
I7661
sVbatter
p6041
I7662
sVbreast
p6042
I2989
sVsilk
p6043
I2990
sVsill
p6044
I2991
sVmerchandise
p6045
I9032
sVsilo
p6046
I2992
sVspikes
p6047
I2993
sVmotorcycles
p6048
I2994
sVdoubled
p6049
I2995
sVcommon
p6050
I2996
sVwitches
p6051
I2997
sVdoubles
p6052
I2998
sVpod
p6053
I2999
sVarchways
p6054
I3000
sVmouthwash
p6055
I3001
sVrestaurants
p6056
I3002
sVcole
p6057
I6116
sVscruffy
p6058
I9059
sVopposing
p6059
I5502
sVvine
p6060
I7254
sVtended
p6061
I7663
sVlion
p6062
I3003
sVindividual
p6063
I7664
sVmedley
p6064
I5880
sVtender
p6065
I7665
sVquiche
p6066
I3004
sVrepairs
p6067
I3005
sVexpert
p6068
I3006
sVvisiting
p6069
I7667
sVburner
p6070
I3007
sVhalves
p6071
I7668
sVfans
p6072
I3008
sVsmallest
p6073
I7669
sVenvelopes
p6074
I7670
sVflame
p6075
I3519
sVcutout
p6076
I3009
sVchampagne
p6077
I3010
sViron
p6078
I5882
sVmailbox
p6079
I3011
sVpagoda
p6080
I7674
sVaircraft
p6081
I9112
sVpepsi
p6082
I3012
sVsheeps
p6083
I3014
sVmarilyn
p6084
I7675
sVfloats
p6085
I7676
sVcubes
p6086
I7677
sVfolding
p6087
I3015
sVreverse
p6088
I9123
sVrestaurant
p6089
I3016
sVarchway
p6090
I8623
sVtrainyard
p6091
I3017
sVforeign
p6092
I3018
sVpavers
p6093
I7679
sVkitchens
p6094
I3019
sVcubed
p6095
I5277
sValot
p6096
I7680
sVafar
p6097
I7681
sVbaltimore
p6098
I3020
sVswirled
p6099
I7682
sVcakes
p6100
I3021
sVconsume
p6101
I7683
sVpoint
p6102
I3022
sVsimple
p6103
I3023
sVrecycling
p6104
I7685
sVdonkey
p6105
I8237
sVnewborn
p6106
I7686
sVpamphlet
p6107
I3024
sVdances
p6108
I3025
sVdancer
p6109
I9164
sVsimply
p6110
I3026
sVcaked
p6111
I3027
sVthroughout
p6112
I7688
sVexpensive
p6113
I3028
sVpatiently
p6114
I7690
sVconsuming
p6115
I3029
sVweaving
p6116
I9184
sVraise
p6117
I7691
sVcreate
p6118
I7692
sVscreened
p6119
I3030
sVdropping
p6120
I3031
sVnavigate
p6121
I1770
sVpeppers
p6122
I3032
sVmeeting
p6123
I7693
sVslips
p6124
I3034
sVvans
p6125
I3035
sVgay
p6126
I3036
sVassorted
p6127
I3037
sVgas
p6128
I3038
sVgap
p6129
I3039
sVvane
p6130
I3040
sVprices
p6131
I7696
sVmaneuvering
p6132
I2464
sVfur
p6133
I7698
sVgrains
p6134
I3043
sVraw
p6135
I3044
sVsolid
p6136
I7699
sVbill
p6137
I22
sVgrainy
p6138
I3045
sVelaborately
p6139
I7430
sVcluster
p6140
I7550
sVtiered
p6141
I3046
sVreplaced
p6142
I3047
sVfun
p6143
I7700
sVinfront
p6144
I6630
sVaa
p6145
I5139
sVlarger
p6146
I4298
sVcentury
p6147
I3048
sVcents
p6148
I7702
sVdecoration
p6149
I46
sVswishing
p6150
I7703
sVitself
p6151
I7704
sVfacade
p6152
I2833
sVhydrants
p6153
I7705
sVmonroe
p6154
I7706
sVitaly
p6155
I7707
sVconcoction
p6156
I3051
sVleafed
p6157
I7709
sVewe
p6158
I7710
sVcorridor
p6159
I3053
sVrelatively
p6160
I3054
sVdevelopment
p6161
I78
sVstrips
p6162
I3056
sVtupperware
p6163
I3057
sVkeys
p6164
I7712
sVleopard
p6165
I7713
sVdesks
p6166
I7714
sVmoment
p6167
I7715
sVpurpose
p6168
I5524
sVwheelchairs
p6169
I7716
sVsandals
p6170
I7717
sVcelebratory
p6171
I7718
sVlacrosse
p6172
I3061
sVsumo
p6173
I494
sVbeanie
p6174
I7719
sVtask
p6175
I3063
sVflags
p6176
I7720
sVnordic
p6177
I3064
sVswiss
p6178
I3065
sVentry
p6179
I7722
sVspend
p6180
I7724
sVpaneling
p6181
I3066
sVeyeglasses
p6182
I7725
sVsnow
p6183
I3529
sVbackflip
p6184
I143
sVshape
p6185
I3069
sVjumpsuit
p6186
I157
sVrundown
p6187
I159
sVcut
p6188
I3070
sVcup
p6189
I3071
sVshouting
p6190
I172
sVkites
p6191
I7727
sVsnap
p6192
I7728
sVbridal
p6193
I7729
sVlilacs
p6194
I7730
sVexcited
p6195
I7731
sVunloading
p6196
I3076
sVbin
p6197
I7732
sVoverhanging
p6198
I7733
sVbig
p6199
I2878
sVbid
p6200
I7735
sVbib
p6201
I7736
sVbit
p6202
I7737
sVdisrepair
p6203
I7739
sVsemi
p6204
I3079
sVfollows
p6205
I7741
sVdisks
p6206
I3080
sVglove
p6207
I7743
sVchow
p6208
I6291
sVbamboo
p6209
I3082
sVgrouped
p6210
I7424
sVgoogle
p6211
I8890
sVgardening
p6212
I3084
sVoften
p6213
I7745
sVhumorous
p6214
I239
sVduck
p6215
I8282
sVmagnificent
p6216
I7746
sVback
p6217
I7747
sVexamples
p6218
I7748
sVornaments
p6219
I256
sVmirror
p6220
I3085
sVcandle
p6221
I3086
sVserver
p6222
I2753
sVontop
p6223
I7750
sVgoogly
p6224
I7751
sVdiscarded
p6225
I5095
sVscale
p6226
I7752
sVjewelry
p6227
I3088
sVpet
p6228
I7753
sVper
p6229
I7754
sVpen
p6230
I7755
sVsneakers
p6231
I7756
sVgallops
p6232
I3092
sVpee
p6233
I7759
sVpeg
p6234
I7760
sVpea
p6235
I7761
sVeither
p6236
I7352
sVcameraman
p6237
I3093
sVpatient
p6238
I3094
sVtaxing
p6239
I3095
sVcostumes
p6240
I309
sVlounges
p6241
I316
sVcostumed
p6242
I7764
sVmoored
p6243
I3096
sVgoods
p6244
I3097
sVconsumption
p6245
I4307
sVpiles
p6246
I7765
sVfron
p6247
I4308
sVgraduation
p6248
I679
sVpiled
p6249
I7766
sVcatnip
p6250
I7767
sVbeans
p6251
I7768
sVauditorium
p6252
I5550
sVdaisies
p6253
I6613
sVframed
p6254
I3101
sVfrog
p6255
I7770
sVframes
p6256
I3102
sVlesson
p6257
I3103
sVdownhill
p6258
I7771
sVjockey
p6259
I7772
sVpared
p6260
I7773
sVhomemade
p6261
I7774
sVforward
p6262
I7775
sVbored
p6263
I7776
sVopponent
p6264
I3106
sVadjusting
p6265
I7777
sVstunning
p6266
I4451
sVboys
p6267
I3109
sVmultilevel
p6268
I6149
sVcalico
p6269
I7778
sVlifeguard
p6270
I7779
sVrestaraunt
p6271
I7780
sVeighteen
p6272
I185
sVclips
p6273
I7781
sVplanes
p6274
I3110
sVjumbo
p6275
I3111
sVsort
p6276
I4369
sVgeese
p6277
I6924
sVstripped
p6278
I3114
sVmopeds
p6279
I3115
sVsingle
p6280
I6810
sVcurb
p6281
I3116
sVnecks
p6282
I3117
sVappetizing
p6283
I3118
sVcurl
p6284
I3119
sVdragging
p6285
I1623
sVpickles
p6286
I7438
sVjalapenos
p6287
I3537
sVcresting
p6288
I8589
sVorganizing
p6289
I7786
sVpecks
p6290
I481
sVplugged
p6291
I7788
sVmayonnaise
p6292
I3122
sVbrushing
p6293
I3123
sVexplaining
p6294
I7789
sVcellar
p6295
I505
sVpineapple
p6296
I3538
sVfiretruck
p6297
I509
sVluxurious
p6298
I510
sVlens
p6299
I7791
sVprepares
p6300
I3125
sVdepicting
p6301
I3126
sVdesert
p6302
I2341
sVmantel
p6303
I7792
sVoverlooking
p6304
I3129
sVcooker
p6305
I3130
sVvehicles
p6306
I534
sVamused
p6307
I7793
sVcooked
p6308
I3131
sVroping
p6309
I7794
sVpresenting
p6310
I3132
sVdrenched
p6311
I2591
sVnoon
p6312
I3133
sVvalves
p6313
I3134
sVstree
p6314
I3135
sVrusting
p6315
I568
sVsanctuary
p6316
I3543
sVgroceries
p6317
I3136
sVsnowmobile
p6318
I3137
sVintricate
p6319
I7798
sVgolfer
p6320
I7799
sVstret
p6321
I3138
sVclementines
p6322
I588
sVvietnamese
p6323
I590
sVpeanut
p6324
I7800
sVmower
p6325
I7801
sVchaps
p6326
I7802
sVhelps
p6327
I3139
sVfrisbees
p6328
I7803
sVweather
p6329
I4509
sVmowed
p6330
I7804
sVgravel
p6331
I7805
sVskiies
p6332
I7806
sVskiier
p6333
I7807
sVqueen
p6334
I1945
sVdessert
p6335
I3141
sVhuddled
p6336
I3142
sVputting
p6337
I7808
sVtoasted
p6338
I7809
sVarrange
p6339
I7810
sVseverely
p6340
I7811
sVrecreation
p6341
I3146
sVdoggy
p6342
I7446
sVannouncing
p6343
I7790
sVknight
p6344
I7813
sVshock
p6345
I7814
sVrearing
p6346
I7815
sVwindsurfer
p6347
I2879
sVchoppy
p6348
I7816
sVsemitrailer
p6349
I7817
sVride
p6350
I6660
sVovens
p6351
I7447
sVbleeding
p6352
I7818
sVcrow
p6353
I7819
sVmural
p6354
I7820
sVrivers
p6355
I3148
sVuncomfortable
p6356
I7821
sVtreeline
p6357
I3149
sVchicago
p6358
I7822
sVgiving
p6359
I7823
sVchewed
p6360
I3150
sVassisted
p6361
I3151
sVairways
p6362
I7448
sVpaddle
p6363
I3152
sVaccess
p6364
I700
sVclipboard
p6365
I3153
sVkayaker
p6366
I7825
sVexercise
p6367
I3154
sV3d
p6368
I3155
sVbody
p6369
I716
sV50th
p6370
I7827
sVjointly
p6371
I3157
sVclawfoot
p6372
I6139
sVpacking
p6373
I3158
sVintercept
p6374
I729
sVsink
p6375
I7828
sVothers
p6376
I7829
sVsing
p6377
I7830
sVjockeys
p6378
I7831
sVextreme
p6379
I7832
sVstalks
p6380
I7833
sVdrank
p6381
I6301
sVdispensers
p6382
I7834
sV30
p6383
I3159
sValaska
p6384
I7835
sV35
p6385
I3160
sVlater
p6386
I3824
sVclimb
p6387
I8092
sVcomposed
p6388
I3161
sVnamed
p6389
I7836
sVblizzard
p6390
I3162
sVpresidents
p6391
I775
sVbaskets
p6392
I7837
sVnames
p6393
I7838
sVoval
p6394
I7839
sVinclosure
p6395
I3165
sVlime
p6396
I4555
sVtaxiing
p6397
I1685
sVthemselves
p6398
I7841
sVinthe
p6399
I3167
sVwoodpaneled
p6400
I3168
sVsheers
p6401
I7842
sVcharcoal
p6402
I3169
sVexcitedly
p6403
I3548
sVupcoming
p6404
I4901
sVkiosk
p6405
I3170
sVtrail
p6406
I838
sVcookware
p6407
I7843
sVprizes
p6408
I3171
sVtattered
p6409
I849
sVarranging
p6410
I7844
sVtearing
p6411
I7845
sVharvest
p6412
I7846
sVswooping
p6413
I852
sVf
p6414
I3173
sVtunnel
p6415
I862
sVredhaired
p6416
I7847
sVclosing
p6417
I3174
sVfetch
p6418
I3175
sVprohibiting
p6419
I7850
sVfigures
p6420
I6248
sVsnacks
p6421
I3176
sVsanding
p6422
I7851
sVbones
p6423
I2764
sVhangar
p6424
I7853
sVlamb
p6425
I3178
sVcurving
p6426
I6755
sVvaried
p6427
I3180
sVboxing
p6428
I8417
sVgrimaces
p6429
I3181
sVformations
p6430
I3182
sVlamp
p6431
I932
sVwinners
p6432
I7855
sVattachment
p6433
I7856
sVfeta
p6434
I7857
sVgraffitid
p6435
I3184
sVfurnace
p6436
I3185
sVonlookers
p6437
I7858
sVprofile
p6438
I3186
sVstemmed
p6439
I6668
sVbuildings
p6440
I7860
sVde
p6441
I7861
sVy
p6442
I7721
sVwaters
p6443
I7862
sVroam
p6444
I7458
sVcollection
p6445
I7863
sVsip
p6446
I4320
sVbluff
p6447
I3188
sVseashells
p6448
I3189
sVterrier
p6449
I3190
sVcuddling
p6450
I7864
sVdrape
p6451
I7865
sVchasing
p6452
I3191
sVpoached
p6453
I3192
sVsit
p6454
I4321
sVlines
p6455
I7866
sVliner
p6456
I7867
sVlinen
p6457
I979
sVminivan
p6458
I7868
sVlined
p6459
I987
sVunmade
p6460
I3195
sVbins
p6461
I8354
sVinstitutional
p6462
I3196
sVdespite
p6463
I3197
sVquietly
p6464
I7460
sVmeter
p6465
I7870
sVsymbols
p6466
I3198
sVhugged
p6467
I7871
sVhorns
p6468
I3199
sVnasty
p6469
I7872
sVbunch
p6470
I7873
sVlg
p6471
I7874
sVla
p6472
I7875
sVlo
p6473
I7876
sVlampposts
p6474
I7878
sVpugs
p6475
I1026
sVsquatting
p6476
I1027
sVmarsh
p6477
I7879
sVrenovations
p6478
I7147
sVdad
p6479
I7880
sVjunction
p6480
I7881
sVdam
p6481
I7882
sVspell
p6482
I1043
sVcutting
p6483
I7883
sVcourtroom
p6484
I3201
sVday
p6485
I7885
sVstraddling
p6486
I3202
sVstunts
p6487
I7886
sVairports
p6488
I7887
sVcider
p6489
I3204
sVdeciding
p6490
I6460
sVblazing
p6491
I3205
sVlingerie
p6492
I7889
sVcircular
p6493
I3208
sVgazing
p6494
I7891
sVflair
p6495
I3209
sVhomeless
p6496
I3210
sVwroughtiron
p6497
I7892
sVhurdles
p6498
I1331
sVpantry
p6499
I3211
sVsweatshirt
p6500
I7893
sVsalesman
p6501
I887
sVpopping
p6502
I3213
sVmatt
p6503
I3214
sVskillet
p6504
I2785
sVmats
p6505
I3215
sVannouncer
p6506
I7894
sVwholly
p6507
I7895
sVmate
p6508
I3216
sVoriental
p6509
I7896
sVbarley
p6510
I3218
sVflushing
p6511
I3219
sVlecture
p6512
I3997
sVelectronics
p6513
I7897
sVref
p6514
I7898
sVwindsurfing
p6515
I1124
sVred
p6516
I1125
sVracquet
p6517
I5124
sVapproached
p6518
I3220
sVduffle
p6519
I3221
sVsalami
p6520
I7899
sVapproaches
p6521
I3222
sVhazard
p6522
I8013
sVretrieves
p6523
I7901
sVretriever
p6524
I5043
sVsteak
p6525
I7902
sVturbans
p6526
I311
sVmortar
p6527
I3226
sVshells
p6528
I7903
sVskateboard
p6529
I3227
sVyarn
p6530
I1168
sVvehicular
p6531
I3228
sVbarriers
p6532
I7904
sVretail
p6533
I7905
sVsouth
p6534
I7906
sVsnowcapped
p6535
I4382
sVgirafee
p6536
I7907
sVethnic
p6537
I1312
sVreaches
p6538
I9072
sVphiladelphia
p6539
I5126
sVhurdle
p6540
I1204
sVafield
p6541
I7909
sVlounging
p6542
I520
sVraggedy
p6543
I8760
sVbraces
p6544
I3232
sVwindsurfers
p6545
I7910
sVancient
p6546
I1425
sVsadly
p6547
I1573
sVmonkey
p6548
I7911
sVlaps
p6549
I349
sVstaning
p6550
I3233
sVpots
p6551
I7912
sVlapt
p6552
I7913
sVtreelined
p6553
I6832
sVbalck
p6554
I7914
sVmessing
p6555
I7915
sVnut
p6556
I8283
sVcabin
p6557
I3234
sVgear
p6558
I7916
sVbulldog
p6559
I3235
sVcompleted
p6560
I9131
sVnobody
p6561
I3236
sVdreary
p6562
I3237
sVfoamy
p6563
I3239
sVhen
p6564
I522
sVipad
p6565
I7917
sVlightening
p6566
I1266
sVbabys
p6567
I3242
sVfurnishings
p6568
I8128
sVshampoo
p6569
I7918
sVloves
p6570
I7919
sVflashes
p6571
I1291
sVnuzzling
p6572
I7921
sVfrizbe
p6573
I7922
sVtidy
p6574
I7923
sVcurves
p6575
I7924
sVcomfortable
p6576
I7925
sVpatting
p6577
I7926
sVcomfortably
p6578
I7927
sVhave
p6579
I3243
sVcurved
p6580
I7928
sVdemonstration
p6581
I5581
sVsidecar
p6582
I7929
sVsayings
p6583
I7930
sVventuring
p6584
I7646
sVmic
p6585
I6507
sVmid
p6586
I1323
sVparks
p6587
I3245
sVmix
p6588
I7854
sVbuiltin
p6589
I1328
sVoutcrop
p6590
I6579
sVchaise
p6591
I7931
sVparka
p6592
I3246
sVmit
p6593
I1335
sVmooring
p6594
I7932
sVmangoes
p6595
I5912
sVpausing
p6596
I7936
sVeight
p6597
I7938
sVtripod
p6598
I7470
sVhandbag
p6599
I7939
sVbeets
p6600
I3247
sVquilted
p6601
I7940
sVstranded
p6602
I6352
sVforeheads
p6603
I525
sVworkspace
p6604
I7941
sVoccasion
p6605
I3248
sVskinny
p6606
I1382
sVplanks
p6607
I7942
sVrecess
p6608
I3249
sVkite
p6609
I7943
sVsettee
p6610
I3250
sVtext
p6611
I7944
sVsupported
p6612
I1399
sVrotating
p6613
I3251
sVkits
p6614
I1406
sVthicket
p6615
I3252
sVstaff
p6616
I2459
sVwear
p6617
I3567
sVcoloring
p6618
I1418
sVchilies
p6619
I3253
sVmug
p6620
I3254
sVcontrols
p6621
I3255
sVemitting
p6622
I3256
sVphotographs
p6623
I3925
sVbeachgoers
p6624
I1457
sVbeat
p6625
I7948
sVphotography
p6626
I7949
sVstripes
p6627
I7950
sVbear
p6628
I7951
sVbeam
p6629
I7952
sVbean
p6630
I7953
sVbeak
p6631
I1473
sVbead
p6632
I7954
sVstriped
p6633
I7955
sVareas
p6634
I7956
sVcrabs
p6635
I7957
sVorgan
p6636
I7958
sVhorizontally
p6637
I4339
sVfixes
p6638
I3258
sVkilts
p6639
I3259
sVcalling
p6640
I7959
sVmercedes
p6641
I3261
sVenclose
p6642
I6680
sVcycles
p6643
I1506
sVconstructing
p6644
I3263
sVturkeys
p6645
I3264
sVnational
p6646
I7960
sVcruise
p6647
I3265
sVoutfielder
p6648
I1524
sVshelfs
p6649
I7961
sVdaffodils
p6650
I3266
sVracket
p6651
I3267
sVtuxedos
p6652
I3268
sVfootlong
p6653
I7962
sVshallows
p6654
I1852
sVgraffitti
p6655
I3270
sVattempting
p6656
I3271
sVclearing
p6657
I7963
sVpurses
p6658
I7964
sVicecream
p6659
I7965
sVhammock
p6660
I3273
sVroutine
p6661
I7966
sVprogress
p6662
I7967
sVboundary
p6663
I3274
sVcauliflower
p6664
I3275
sVunderwater
p6665
I7968
sVdeliver
p6666
I1566
sVtoting
p6667
I3276
sVfreely
p6668
I7969
sVtaking
p6669
I3278
sVboulders
p6670
I7970
sVbusted
p6671
I7971
sVlonghaired
p6672
I7972
sVswim
p6673
I1608
sVpassing
p6674
I7973
sVotherwise
p6675
I7974
sVvent
p6676
I7975
sVstatues
p6677
I3281
sVbasins
p6678
I3283
sVdenim
p6679
I3284
sVovercoat
p6680
I7977
sVgong
p6681
I5142
sVlaugh
p6682
I7978
sVbespectacled
p6683
I7979
sVpouring
p6684
I7980
sVswimmer
p6685
I3286
sVmuddy
p6686
I7981
sVgaze
p6687
I3288
sVseasoned
p6688
I3289
sVcurtain
p6689
I3291
sVantlers
p6690
I3294
sVangled
p6691
I1649
sVfinishes
p6692
I3295
sVstationed
p6693
I3296
sVairplanes
p6694
I7985
sVpreforming
p6695
I3298
sVridden
p6696
I7986
sVfinished
p6697
I3299
sVsausages
p6698
I3300
sVwalkdont
p6699
I3301
sVbull
p6700
I3302
sVbulb
p6701
I1668
sVwaterhole
p6702
I3304
sVfellow
p6703
I7480
sVlocomotives
p6704
I3305
sVvolunteer
p6705
I3306
sVhomes
p6706
I7988
sVmulti
p6707
I3307
sVplaid
p6708
I7989
sVwelcoming
p6709
I3308
sVsplits
p6710
I7990
sVplain
p6711
I1673
sVhomey
p6712
I7991
sVappearance
p6713
I7992
sVas
p6714
I5148
sVrectangular
p6715
I7993
sVhoagie
p6716
I7994
sVat
p6717
I5149
sVcontrail
p6718
I9036
sValmost
p6719
I3314
sVsquid
p6720
I3315
sVrespected
p6721
I7996
sVarrangements
p6722
I3317
sVpartner
p6723
I3318
sVarabic
p6724
I7998
sVpedestal
p6725
I3319
sVfacet
p6726
I1946
sVgrinder
p6727
I3320
sVchandeliers
p6728
I3569
sVtaxidermy
p6729
I3322
sVauto
p6730
I6685
sVshuttle
p6731
I8002
sVblooms
p6732
I8003
sVinjured
p6733
I8004
sVmaterial
p6734
I4347
sVwhiile
p6735
I1756
sVupclose
p6736
I1435
sVbinoculars
p6737
I3323
sVion
p6738
I8007
sVsisters
p6739
I1765
sVcroissants
p6740
I8008
sVnumbered
p6741
I3325
sVcenter
p6742
I8010
sVteeshirt
p6743
I1784
sVthought
p6744
I8011
sVkiteboarding
p6745
I3327
sVsets
p6746
I8012
sVposition
p6747
I2405
sVmuscle
p6748
I1794
sVdrivers
p6749
I5773
sVlatest
p6750
I5571
sVny
p6751
I8390
sVfeathered
p6752
I8488
sVcoaster
p6753
I8015
sVbarking
p6754
I1802
sVproximity
p6755
I8016
sVexecutive
p6756
I8017
sVdomestic
p6757
I8018
sVclinic
p6758
I3572
sVstored
p6759
I3329
sVseats
p6760
I8019
sVprotecting
p6761
I8020
sVflashlight
p6762
I3330
sVads
p6763
I3331
sVonward
p6764
I3332
sVlake
p6765
I1827
sVbench
p6766
I8021
sVadd
p6767
I1834
sVsedan
p6768
I3333
sVcitizen
p6769
I8022
sVadn
p6770
I3335
sVsafeway
p6771
I3206
sVcrossroad
p6772
I6191
sVmatch
p6773
I6411
sVarticles
p6774
I4351
sVmasters
p6775
I6688
sVdryer
p6776
I1866
sVfootstool
p6777
I4352
sVmotorola
p6778
I1876
sVrumpled
p6779
I8025
sVlike
p6780
I3337
sVinviting
p6781
I8026
sVsofa
p6782
I1880
sVchick
p6783
I3340
sVworks
p6784
I8027
sVsoft
p6785
I8028
sVheel
p6786
I5218
sVitalian
p6787
I3341
sVaccessible
p6788
I3342
sVcarnations
p6789
I3343
sVpropel
p6790
I2766
sValive
p6791
I8030
sVswimsuits
p6792
I8031
sVhair
p6793
I3346
sVconvex
p6794
I8032
sVproper
p6795
I3347
sVpaddock
p6796
I8033
sVshrub
p6797
I3348
sVdunes
p6798
I8034
sVshelter
p6799
I8035
sVmasked
p6800
I3349
sVbustling
p6801
I1934
sVscrewed
p6802
I3350
sVheadlights
p6803
I1298
sVchains
p6804
I882
sVpanes
p6805
I8038
sVthinly
p6806
I1950
sVhose
p6807
I8039
sVproud
p6808
I3353
sVslight
p6809
I8041
sVmultitiered
p6810
I3354
sVtucks
p6811
I5929
sVpools
p6812
I6690
sVhost
p6813
I8042
sVpanel
p6814
I8043
sVgifts
p6815
I5156
sVabout
p6816
I3356
sVbills
p6817
I4356
sVactual
p6818
I3357
sVboards
p6819
I8948
sVbeaked
p6820
I8045
sVtailed
p6821
I3360
sVangles
p6822
I3361
sVchildrens
p6823
I8046
sVvegetated
p6824
I3362
sVzooms
p6825
I5851
sVsocks
p6826
I3363
sVguard
p6827
I6446
sVdoesnt
p6828
I8048
sVfemale
p6829
I3364
sVfourwheeler
p6830
I3366
sVcustard
p6831
I8049
sVridge
p6832
I2029
sVadolescent
p6833
I8050
sVbrides
p6834
I8051
sVvegetables
p6835
I3369
sVoutline
p6836
I7257
sVfirefighter
p6837
I8052
sVrushes
p6838
I3370
sVspread
p6839
I5972
sVbiggest
p6840
I3371
sVmaze
p6841
I2043
sVchunk
p6842
I6695
sVivory
p6843
I2047
sVbuy
p6844
I8053
sVthreetiered
p6845
I8054
sVbobble
p6846
I8055
sVbus
p6847
I8056
sVcoke
p6848
I3374
sVsantas
p6849
I8058
sVbut
p6850
I8059
sVlandscaping
p6851
I3376
sVbun
p6852
I8060
sVbookshelf
p6853
I8061
sVinverted
p6854
I6696
sVbug
p6855
I8062
sVbud
p6856
I8063
sVpartially
p6857
I2066
sVmisty
p6858
I8064
sVglory
p6859
I8065
sVtater
p6860
I3279
sVdangerous
p6861
I2072
sVj
p6862
I8595
sVvariations
p6863
I8066
sVflip
p6864
I3378
sVminutes
p6865
I8067
sVskating
p6866
I3379
sVsupreme
p6867
I2088
sVrabbits
p6868
I8068
sVpin
p6869
I8069
sVbrochures
p6870
I8070
sVpic
p6871
I8071
sVpie
p6872
I8072
sVpig
p6873
I8073
sVtabletop
p6874
I2101
sVshooting
p6875
I4096
sVpit
p6876
I8074
sVproceeds
p6877
I7474
sVmessily
p6878
I2113
sVdressed
p6879
I3384
sVoak
p6880
I3385
sVdetail
p6881
I2118
sVvirtual
p6882
I8075
sV41
p6883
I3387
sVjeeps
p6884
I8076
sVspecial
p6885
I7020
sVledge
p6886
I8077
sVgranite
p6887
I8078
sVdresses
p6888
I3389
sVdresser
p6889
I3390
sVdraught
p6890
I8079
sVbundle
p6891
I8742
sVsemis
p6892
I8080
sVstirred
p6893
I3391
sVbaker
p6894
I8082
sVbakes
p6895
I8083
sVhiker
p6896
I8084
sVhikes
p6897
I8085
sVcookbook
p6898
I2195
sVbaked
p6899
I8086
sVlimited
p6900
I2627
sVdoubledecked
p6901
I2813
sVhats
p6902
I8088
sVsleek
p6903
I8089
sVdoubledecker
p6904
I8090
sVsleep
p6905
I8091
sVhate
p6906
I8093
sVassembled
p6907
I8094
sVpoorly
p6908
I3396
sVtrolley
p6909
I8096
sVmuzzle
p6910
I3397
sVfeeding
p6911
I8097
sVpatches
p6912
I4106
sVparis
p6913
I8098
sVglider
p6914
I3398
sVunder
p6915
I3399
sVverdant
p6916
I8099
sVmerchant
p6917
I8100
sVgrits
p6918
I8102
sVdisassembled
p6919
I7500
sVmicrosoft
p6920
I4274
sVevery
p6921
I8103
sVjack
p6922
I2270
sVconfetti
p6923
I8105
sVfireplace
p6924
I8106
sVmonkeys
p6925
I3401
sVschool
p6926
I3402
sVparrot
p6927
I8108
sVmatress
p6928
I1005
sVsupports
p6929
I4368
sVvenue
p6930
I8109
sVguiding
p6931
I8943
sVsmoky
p6932
I5792
sVenjoy
p6933
I8111
sVbicycle
p6934
I3404
sVfeathery
p6935
I3405
sValmond
p6936
I397
sVfeathers
p6937
I3406
sVdirect
p6938
I3407
sVfrosted
p6939
I3408
sVnail
p6940
I3409
sVsurrounding
p6941
I2325
sVstreet
p6942
I8112
sVfixtures
p6943
I7997
sVshining
p6944
I8113
sVblue
p6945
I3413
sVhide
p6946
I3414
sVchrist
p6947
I8115
sVbeaten
p6948
I8116
sVliberty
p6949
I3415
sVchildren
p6950
I7502
sVlampshade
p6951
I8117
sVsheeted
p6952
I8118
sVblur
p6953
I3416
sVsupplies
p6954
I3417
sVdisney
p6955
I8120
sVdashboard
p6956
I3581
sVpats
p6957
I8121
sVpontoon
p6958
I3418
sVramps
p6959
I8122
sVhundreds
p6960
I8123
sVsocialize
p6961
I8124
sVfloret
p6962
I4537
sVpath
p6963
I8126
sVstares
p6964
I2390
sVmozzarella
p6965
I3419
sVluggage
p6966
I3421
sVauction
p6967
I8127
sVleaves
p6968
I2411
sVchanged
p6969
I8129
sVdeers
p6970
I8130
sVjogging
p6971
I8131
sVchanges
p6972
I8132
sVpendant
p6973
I8133
sVprints
p6974
I3422
sVambulances
p6975
I8134
sVstray
p6976
I3423
sVstraw
p6977
I3424
sVerected
p6978
I8135
sVvisible
p6979
I8136
sVmeats
p6980
I3427
sVpunching
p6981
I8137
sVmeaty
p6982
I3428
sVswings
p6983
I3429
sVscaffolding
p6984
I8139
sVwould
p6985
I3430
sVhospital
p6986
I3431
sVspiky
p6987
I3432
sVchargers
p6988
I2484
sVteddybear
p6989
I2487
sVcentre
p6990
I9079
sVshaded
p6991
I4302
sVlimousine
p6992
I3433
sVattractive
p6993
I4478
sVbillowing
p6994
I3435
sVbrushy
p6995
I8140
sVphone
p6996
I8141
sVexcellent
p6997
I2513
sVoutdated
p6998
I8142
sVmust
p6999
I8143
sVabundance
p7000
I3436
sVhutch
p7001
I3437
sVma
p7002
I8145
sVmm
p7003
I8147
sVmr
p7004
I8148
sVmy
p7005
I8150
sVdecorative
p7006
I8151
sVinscription
p7007
I8152
sVwhizzes
p7008
I3438
sVestate
p7009
I3439
sVwalkways
p7010
I8153
sVgadgets
p7011
I3442
sVoverheard
p7012
I3443
sVweathervane
p7013
I8154
sVjumble
p7014
I3445
sVkeep
p7015
I6709
sVceremony
p7016
I3447
sVend
p7017
I8155
sVbunk
p7018
I8156
sVreturning
p7019
I8157
sVslalom
p7020
I8158
sVrhinoceros
p7021
I8159
sVbuns
p7022
I8160
sVbunt
p7023
I8161
sVadjacent
p7024
I8162
sVgate
p7025
I2595
sVcharging
p7026
I8163
sVeyeballs
p7027
I3448
sVbadly
p7028
I3449
sVpokes
p7029
I8164
sVdescription
p7030
I3450
sVmouths
p7031
I8165
sVmess
p7032
I8166
sVdelicacy
p7033
I3451
sVstroller
p7034
I7795
sVmesh
p7035
I8167
sVpoked
p7036
I8168
sVsparkler
p7037
I8169
sVsalsa
p7038
I3453
sVparallel
p7039
I3454
sVcroissant
p7040
I8170
sVspout
p7041
I8171
sVharley
p7042
I3456
sVpinstriped
p7043
I5945
sVupside
p7044
I3457
sVjungle
p7045
I3458
sVenter
p7046
I8173
sVplumbing
p7047
I3459
sVvapor
p7048
I3460
sVflippers
p7049
I8174
sVsprout
p7050
I8175
sVover
p7051
I8176
sVunderside
p7052
I3462
sVmallard
p7053
I8178
sVjacuzzi
p7054
I8179
sVexecutes
p7055
I8180
sVoven
p7056
I8181
sVwatery
p7057
I7859
sVexchange
p7058
I3156
sVglances
p7059
I3465
sVbeside
p7060
I3595
sVunzipped
p7061
I3467
sVwriting
p7062
I8183
sVdestroyed
p7063
I8184
sVtilts
p7064
I3468
sVtrams
p7065
I3469
sVstrand
p7066
I7784
sVcroquet
p7067
I2709
sVbails
p7068
I4211
sVtourist
p7069
I3470
sVplaster
p7070
I8185
sVclocktower
p7071
I8186
sVdalmation
p7072
I8187
sVmanicure
p7073
I3471
sVpinkish
p7074
I8190
sVrental
p7075
I3473
sVshadows
p7076
I3474
sVpotatoes
p7077
I3476
sVshadowy
p7078
I3477
sVdetroit
p7079
I3478
sVchoir
p7080
I2763
sVfilling
p7081
I8193
sVvictory
p7082
I8194
sVeach
p7083
I2771
sVperimeter
p7084
I5951
sVsigning
p7085
I8195
sVhanger
p7086
I8196
sVcloths
p7087
I8197
sVgymnasium
p7088
I8198
sVwaffle
p7089
I3479
sVcelebrating
p7090
I8199
sVhanged
p7091
I8200
sVmagnets
p7092
I8201
sVclothe
p7093
I8202
sVpounce
p7094
I3482
sVgoo
p7095
I8203
sVdriving
p7096
I4697
sVgod
p7097
I8204
sVmotel
p7098
I8473
sVwashed
p7099
I8205
sVsand
p7100
I571
sVlaid
p7101
I3483
sVmotes
p7102
I3485
sVgot
p7103
I8207
sVwasher
p7104
I8208
sVwashes
p7105
I8209
sVsplashed
p7106
I3487
sVarizona
p7107
I8210
sVcarcass
p7108
I2846
sVrail
p7109
I5953
sVfree
p7110
I8211
sVformation
p7111
I8212
sVevil
p7112
I8213
sVgrasses
p7113
I3490
sVtimelapse
p7114
I8214
sVdays
p7115
I3491
sVsandwhiches
p7116
I8215
sVoutfits
p7117
I3492
sVfilter
p7118
I3493
sVsquinting
p7119
I6915
sVdiffernt
p7120
I3495
sVonto
p7121
I3496
sVgrassed
p7122
I3497
sValready
p7123
I8216
sVgazelle
p7124
I8217
sVgalley
p7125
I8218
sVbandages
p7126
I790
sVknifes
p7127
I8219
sVbandaged
p7128
I8408
sVandor
p7129
I8220
sVtoy
p7130
I3498
sVpotty
p7131
I4384
sVguinness
p7132
I8222
sVtop
p7133
I3499
sVperching
p7134
I3500
sVtow
p7135
I3501
sVtot
p7136
I5561
sVheights
p7137
I3503
sVton
p7138
I3504
sVtoo
p7139
I3505
sVwildly
p7140
I8224
sVgowns
p7141
I2952
sVtoa
p7142
I3506
sVtoe
p7143
I3507
sVurban
p7144
I3508
sVceiling
p7145
I8225
sVcentered
p7146
I5813
sVtool
p7147
I8226
sVbrushes
p7148
I2965
sVserve
p7149
I8227
sVtook
p7150
I8228
sVwrapped
p7151
I2041
sVwestern
p7152
I8229
sVwardrobe
p7153
I3513
sVnudging
p7154
I3514
sVbrushed
p7155
I8232
sVreclining
p7156
I3515
sVhopping
p7157
I8233
sVroles
p7158
I3516
sVburger
p7159
I8234
sVrolex
p7160
I3517
sVfinal
p7161
I6719
sVexpo
p7162
I8235
sVprone
p7163
I4966
sVbrilliant
p7164
I8236
sVhyrdant
p7165
I7512
sVbridge
p7166
I3522
sVrad
p7167
I8972
sVfashion
p7168
I8238
sVhandkerchief
p7169
I3523
sVran
p7170
I8240
sVram
p7171
I8241
sVeps
p7172
I5961
sVtalking
p7173
I8242
sVrat
p7174
I8243
sVleafs
p7175
I8244
sVkiteboard
p7176
I8245
sVleafy
p7177
I8247
sVseminar
p7178
I3526
sVray
p7179
I8248
sVtriangle
p7180
I4141
sVmidswing
p7181
I3527
sVharper
p7182
I8249
sVsteamboat
p7183
I8250
sVisolated
p7184
I8251
sVthorough
p7185
I3530
sVhatch
p7186
I3532
sVrides
p7187
I8254
sVrider
p7188
I8255
sVthough
p7189
I3533
sVplenty
p7190
I3534
sVcoin
p7191
I6153
sVglow
p7192
I8230
sVpeers
p7193
I3108
sVtreats
p7194
I8257
sVsoups
p7195
I8258
sVpartition
p7196
I3113
sVflow
p7197
I8259
sVfreeway
p7198
I8260
sVorderly
p7199
I8261
sVenterprise
p7200
I8262
sVscreensaver
p7201
I3539
sVentertaining
p7202
I3541
sVcurio
p7203
I3128
sVstorks
p7204
I7518
sVsnowman
p7205
I3542
sVchariot
p7206
I8383
sVrandom
p7207
I8263
sVpops
p7208
I8264
sVcolors
p7209
I3544
sVradio
p7210
I3147
sVsharpie
p7211
I8265
sVicicles
p7212
I8266
sVearth
p7213
I8267
sVbail
p7214
I3546
sVgrassless
p7215
I8268
sVminnesota
p7216
I3547
sVzipping
p7217
I8269
sVlodge
p7218
I3549
sVhighchair
p7219
I8271
sVmixture
p7220
I8272
sVsunglasses
p7221
I8273
sVwatch
p7222
I3551
sVfluid
p7223
I3552
sVamazon
p7224
I3193
sVwedding
p7225
I3553
sVfrying
p7226
I1594
sVtoolbox
p7227
I3554
sVfabrics
p7228
I8274
sVbeads
p7229
I3555
sVcountries
p7230
I8275
sVrowing
p7231
I8276
sVlicking
p7232
I8277
sVplush
p7233
I7522
sV34th
p7234
I8278
sVshots
p7235
I8279
sVruins
p7236
I6871
sVthumbs
p7237
I3609
sVkeypad
p7238
I3557
sVliquor
p7239
I9161
sV1960s
p7240
I3240
sVnun
p7241
I8284
sVnoodles
p7242
I3558
sVjerseys
p7243
I3559
sVunpainted
p7244
I6058
sVgrandmother
p7245
I3560
sVmud
p7246
I3561
sVhomeplate
p7247
I7796
sVfinger
p7248
I3562
sVfocal
p7249
I5373
sVapproach
p7250
I3563
sVhandwritten
p7251
I8285
sVherding
p7252
I3564
sVrims
p7253
I3565
sVmetal
p7254
I8286
sVleaping
p7255
I3566
sVtoothbrush
p7256
I7840
sVaquarium
p7257
I8287
sVnews
p7258
I3568
sVflowering
p7259
I8288
sVsurfer
p7260
I7525
sVfaced
p7261
I8289
sVpuddles
p7262
I8290
sVprotect
p7263
I8291
sVantelopes
p7264
I3303
sVranger
p7265
I8292
sVjelly
p7266
I8293
sVparticipating
p7267
I8294
sVplayers
p7268
I8295
sVmerging
p7269
I8296
sVlayered
p7270
I8297
sVgames
p7271
I3570
sVfaces
p7272
I8298
sVjello
p7273
I8299
sVbetting
p7274
I8300
sVtowels
p7275
I8301
sVmajestic
p7276
I1680
sVcomical
p7277
I8302
sVconference
p7278
I3573
sVbathroom
p7279
I8303
sVpedaling
p7280
I3574
sVbeef
p7281
I8304
sVbikinis
p7282
I3358
sVropes
p7283
I8305
sVbeen
p7284
I8306
sVblower
p7285
I8307
sVsubmarine
p7286
I3576
sVbeer
p7287
I8308
sVbees
p7288
I8309
sVbeet
p7289
I8310
sVroped
p7290
I8311
sVcontainers
p7291
I8312
sVboard
p7292
I8313
sVpinking
p7293
I3382
sVloft
p7294
I3577
sVchipped
p7295
I8986
sVaffixed
p7296
I2129
sVcraft
p7297
I4624
sVrowers
p7298
I8316
sVcatch
p7299
I8317
sVglides
p7300
I3578
sVteapot
p7301
I5375
sVwindup
p7302
I3579
sVcracker
p7303
I8318
sVn
p7304
I3580
sVteachers
p7305
I8319
sVstopping
p7306
I3582
sVcracked
p7307
I8320
sVprocedure
p7308
I3583
sVpyramid
p7309
I3584
sVhandrail
p7310
I3585
sVdumplings
p7311
I3586
sVbroth
p7312
I3587
sVtress
p7313
I3588
sVaccessories
p7314
I3589
sVexterior
p7315
I3590
sVinteracts
p7316
I3592
sVcontaining
p7317
I8322
sVnike
p7318
I3593
sVwound
p7319
I8323
sVlinked
p7320
I4396
sVforehead
p7321
I3466
sVcomplex
p7322
I8324
sVcarnation
p7323
I8326
sVseveral
p7324
I8327
sVmoose
p7325
I8328
sVpeaks
p7326
I3598
sVsocial
p7327
I1452
sVcharacters
p7328
I8330
sVstandng
p7329
I8331
sVcycle
p7330
I8332
sVhearth
p7331
I8333
sVshortly
p7332
I3600
sVboxes
p7333
I8334
sVocean
p7334
I3601
sVhearty
p7335
I3531
sVmother
p7336
I3603
sVhearts
p7337
I8336
sVjean
p7338
I3536
sVdads
p7339
I3604
sVshadowed
p7340
I8337
sVleaguer
p7341
I3605
sVassembling
p7342
I3606
sVlaptop
p7343
I8338
sVrodent
p7344
I3608
sVtransporting
p7345
I8339
sVdepart
p7346
I594
sVelk
p7347
I6445
sVteenaged
p7348
I3611
sVcollars
p7349
I3612
sVfurry
p7350
I8340
sVelf
p7351
I3614
sVpharmacy
p7352
I8341
sVteenager
p7353
I7197
sVtechnological
p7354
I8342
sVclapping
p7355
I8343
sVturquoise
p7356
I8344
sVcasting
p7357
I3591
sVmounds
p7358
I3616
sVbands
p7359
I8345
sVbreaks
p7360
I3617
sVcultural
p7361
I3618
sVdescending
p7362
I3619
sVjudge
p7363
I3620
sVappearing
p7364
I3624
sVburns
p7365
I3621
sVburnt
p7366
I3622
sVadvanced
p7367
I8346
sVapart
p7368
I8347
sVmelting
p7369
I3623
sVintertwined
p7370
I8348
sVgift
p7371
I8349
sV55
p7372
I3626
sV54
p7373
I3625
sVpumps
p7374
I4536
sV50
p7375
I3630
sVspecific
p7376
I8350
sVmosquito
p7377
I8351
sVhung
p7378
I3627
sVpetting
p7379
I6280
sVmash
p7380
I3383
sVsuccessfully
p7381
I5747
sVproudly
p7382
I3628
sVchests
p7383
I3631
sVmalaysia
p7384
I3632
sVmeters
p7385
I8352
sVescape
p7386
I8353
sVadvertise
p7387
I4176
sVxbox
p7388
I1587
sVdoorstep
p7389
I3633
sVproceeding
p7390
I3634
sVcompanions
p7391
I3687
sVclassical
p7392
I3344
sVrhino
p7393
I3636
sVeverything
p7394
I3692
sVicy
p7395
I8358
sVskylight
p7396
I3638
sVplantain
p7397
I8359
sVchristmas
p7398
I4031
sVavatar
p7399
I3639
sVcord
p7400
I8360
sVcore
p7401
I8361
sVkhaki
p7402
I3640
sVgrizzle
p7403
I5984
sVgarnishes
p7404
I8362
sVcorn
p7405
I8363
sVcork
p7406
I8364
sVlamps
p7407
I3641
sVdalmatian
p7408
I3642
sVgarnished
p7409
I8365
sVplug
p7410
I3643
sVplayroom
p7411
I8366
sVcowboy
p7412
I3738
sVplying
p7413
I3644
sVsurround
p7414
I8367
sVdinner
p7415
I3645
sVplus
p7416
I3751
sVcurry
p7417
I8368
sVduke
p7418
I3647
sVprimitive
p7419
I8369
sVdestination
p7420
I7540
sVdials
p7421
I3649
sVtoothpicks
p7422
I3650
sVcivil
p7423
I5086
sVlavishly
p7424
I3651
sVwelllit
p7425
I3652
sVobscene
p7426
I3767
sVbath
p7427
I3654
sVfinely
p7428
I4115
sVbats
p7429
I3655
sVcoastal
p7430
I3775
sVcafeteria
p7431
I8370
sVcubicle
p7432
I3656
sVrounds
p7433
I8371
sVsunlight
p7434
I3657
sVwhy
p7435
I4407
sVstuck
p7436
I3658
sVsplash
p7437
I8373
sVtowing
p7438
I3659
sVcrews
p7439
I3660
sVgin
p7440
I2977
sVhead
p7441
I8374
sVmedium
p7442
I3808
sVamateur
p7443
I3661
sVparasails
p7444
I1440
sVattempted
p7445
I3815
sV6
p7446
I3663
sVremoves
p7447
I3820
sVwireless
p7448
I3665
sVheat
p7449
I8377
sVilluminating
p7450
I3666
sVhear
p7451
I8378
sVsolar
p7452
I3830
sVremoved
p7453
I3834
sVsponge
p7454
I3668
sVportions
p7455
I3841
sVdollhouse
p7456
I3848
sVmannequins
p7457
I3669
sVruined
p7458
I3670
sVdecorate
p7459
I3671
sVzodiac
p7460
I3672
sVeachother
p7461
I6753
sVadorn
p7462
I8382
sVtrim
p7463
I3866
sVbrightly
p7464
I8384
sVtrio
p7465
I8385
sVnovel
p7466
I6800
sVcobbler
p7467
I3674
sVshines
p7468
I3675
sVtrip
p7469
I7641
sVconstructed
p7470
I8386
sVpipe
p7471
I8387
sVoutstretched
p7472
I8388
sVno
p7473
I8389
sVtip
p7474
I5465
sVtim
p7475
I762
sVtin
p7476
I8391
sVsetting
p7477
I3677
sVpapers
p7478
I3920
sVtie
p7479
I8392
sVorchid
p7480
I5988
sVnw
p7481
I8394
sVevergreen
p7482
I8395
sVpicture
p7483
I3929
sVgrasps
p7484
I3678
sVfootball
p7485
I3679
sVmiscellaneous
p7486
I3680
sVtrailers
p7487
I8397
sVrising
p7488
I3950
sVflushed
p7489
I3681
sVyounger
p7490
I8398
sVradishes
p7491
I3682
sVfaster
p7492
I3683
sVbullet
p7493
I8399
sVnavel
p7494
I3960
sVvigorously
p7495
I3684
sVyacht
p7496
I3685
sVuncovered
p7497
I3686
sVserious
p7498
I8400
sVbackward
p7499
I8401
sVstacks
p7500
I8402
sVcoach
p7501
I3980
sVrom
p7502
I3688
sVblackandwhite
p7503
I3986
sVparticular
p7504
I2471
sVrod
p7505
I3689
sVfocus
p7506
I3690
sVleads
p7507
I3994
sVice
p7508
I8357
sVdisplaying
p7509
I8405
sVrow
p7510
I3691
sVprotest
p7511
I8406
sVessentials
p7512
I4010
sVcontemplating
p7513
I8409
sVpassage
p7514
I3693
sVenvironment
p7515
I3694
sVcharge
p7516
I3695
sVconfinement
p7517
I1114
sVmelon
p7518
I8412
sVstove
p7519
I4412
sVcoop
p7520
I3697
sVadvantage
p7521
I8414
sVspools
p7522
I3698
sVfleece
p7523
I605
sVsloppy
p7524
I8415
sVnesting
p7525
I3699
sVtanks
p7526
I3700
sVartwork
p7527
I898
sVcook
p7528
I3701
sVcool
p7529
I3703
sVwitting
p7530
I8419
sVclouds
p7531
I3704
sVmoderate
p7532
I7812
sVlevel
p7533
I3706
sVposts
p7534
I3707
sVbrother
p7535
I8421
sVcloudy
p7536
I3708
sVscience
p7537
I5202
sVquick
p7538
I8422
sVdries
p7539
I7284
sVdrier
p7540
I3711
sVsays
p7541
I8423
sVdried
p7542
I9089
sVtakeoff
p7543
I8424
sVbake
p7544
I8425
sVbales
p7545
I3712
sVport
p7546
I3713
sVdrinks
p7547
I64
sVpeel
p7548
I1346
sVunripe
p7549
I8428
sVspire
p7550
I8429
sVtarmac
p7551
I8416
sVgoes
p7552
I3715
sVhairy
p7553
I8431
sVwater
p7554
I4161
sVentertain
p7555
I3717
sVsoldiers
p7556
I6761
sVgroups
p7557
I8433
sVhorsedrawn
p7558
I3719
sVunidentified
p7559
I8435
sVbeanbag
p7560
I4178
sVhealthy
p7561
I3722
sVpearls
p7562
I8436
sVmarble
p7563
I8437
sVsharpening
p7564
I8438
sVstomachs
p7565
I2499
sVcinnamon
p7566
I8439
sVweird
p7567
I8440
sVentrees
p7568
I3724
sVlowers
p7569
I8441
sVtuxedo
p7570
I3726
sVthrees
p7571
I8443
sVscarves
p7572
I9181
sV1st
p7573
I8444
sVpost
p7574
I8445
sVbulbs
p7575
I3727
sVhandled
p7576
I3728
sVmemorial
p7577
I189
sVlittered
p7578
I3392
sVhandles
p7579
I3729
sVhandler
p7580
I3730
sVprey
p7581
I4243
sViphone
p7582
I3731
sVfrothy
p7583
I8447
sVmemory
p7584
I8448
sVaustralian
p7585
I8449
sVprep
p7586
I3732
sVtoday
p7587
I3733
sVsmeared
p7588
I8450
sVkerry
p7589
I8451
sVconductor
p7590
I4258
sVclicking
p7591
I8452
sValtar
p7592
I4265
sVchocolate
p7593
I8454
sVfuel
p7594
I6766
sVbeers
p7595
I8455
sVflapping
p7596
I3734
sVcases
p7597
I3735
sVautumn
p7598
I6457
sVedible
p7599
I3737
sVlocal
p7600
I4416
sVmodified
p7601
I8456
sVaircrafts
p7602
I8457
sVferry
p7603
I5595
sVmeatball
p7604
I3739
sVgazelles
p7605
I3740
sVpickle
p7606
I3741
sVnewspapers
p7607
I5994
sVstreak
p7608
I8458
sVoverpass
p7609
I3742
sVperformer
p7610
I8459
sVnursing
p7611
I3743
sVfigure
p7612
I3744
sVstroke
p7613
I4313
sVdropped
p7614
I4315
sVwiimote
p7615
I8461
sVcounting
p7616
I3745
sVhydrogen
p7617
I8462
sVmiddleaged
p7618
I3746
sVmasks
p7619
I7900
sVsailboat
p7620
I3747
sVsecured
p7621
I8463
sVbrand
p7622
I8057
sV1
p7623
I3748
sVcrumbling
p7624
I6769
sVrefridgerator
p7625
I4342
sVcardinal
p7626
I3749
sVfourth
p7627
I3750
sVspeaks
p7628
I8464
sVtrashcans
p7629
I6770
sVetched
p7630
I3753
sVcrashes
p7631
I3754
sVhuge
p7632
I611
sVgranddaughter
p7633
I8466
sVmotorists
p7634
I8467
sVcrashed
p7635
I5400
sVbirthday
p7636
I8468
sVtipped
p7637
I8469
sVwakeboarder
p7638
I3755
sVfloral
p7639
I8470
sVwagging
p7640
I3756
sVclassroom
p7641
I4385
sVbranches
p7642
I8471
sVliquid
p7643
I3758
sVlagoon
p7644
I8480
sVhilltop
p7645
I5395
sVshinning
p7646
I8472
sVrye
p7647
I8474
sVfurnished
p7648
I4414
sVmainly
p7649
I4418
sVducklings
p7650
I6842
sVmotions
p7651
I8476
sVblocked
p7652
I8477
sVfoldable
p7653
I7267
sVredheaded
p7654
I4440
sVquesadilla
p7655
I8479
sVappetizers
p7656
I6992
sVplatform
p7657
I3759
sVoffers
p7658
I1705
sVfarmer
p7659
I3761
sVswans
p7660
I8481
sVpuzzle
p7661
I8314
sVwhirlpool
p7662
I6651
sVlonely
p7663
I3762
sVmoms
p7664
I8484
sVconversations
p7665
I8485
sVunderneath
p7666
I3766
sVrefrigerated
p7667
I3768
sVfeature
p7668
I8487
sVfern
p7669
I3770
sVgushing
p7670
I3771
sVescorting
p7671
I3772
sVfilmed
p7672
I9090
sVname
p7673
I3773
sVcorners
p7674
I8489
sVrealistic
p7675
I4491
sVhashbrowns
p7676
I8490
sVindividually
p7677
I3774
sVdishing
p7678
I933
sVpopulated
p7679
I3776
sVsprinkle
p7680
I617
sVcatching
p7681
I4523
sVzebra
p7682
I8492
sVsunrise
p7683
I8493
sVintended
p7684
I618
sVtulips
p7685
I3777
sVfactory
p7686
I8494
sVtreading
p7687
I8495
sVruck
p7688
I1548
sVcoolers
p7689
I3779
sVshe
p7690
I6777
sVclover
p7691
I8496
sVattended
p7692
I8497
sVhula
p7693
I4633
sVhull
p7694
I8499
sVflyer
p7695
I3783
sVskillfully
p7696
I3784
sVgrab
p7697
I8700
sVroosters
p7698
I8500
sVmotion
p7699
I8502
sVturn
p7700
I3786
sVbutterflies
p7701
I3787
sVplane
p7702
I5223
sVplace
p7703
I4692
sVswing
p7704
I3788
sVturf
p7705
I3789
sVsaucers
p7706
I4425
sVteammates
p7707
I8503
sVpelican
p7708
I8504
sVbudweiser
p7709
I8505
sVparasols
p7710
I3790
sVsoaring
p7711
I8506
sVarray
p7712
I3791
sVpokemon
p7713
I8507
sVgeorge
p7714
I4643
sVengineer
p7715
I3792
sVgiven
p7716
I3793
sVdistrict
p7717
I5756
sVvirgin
p7718
I3794
sVplastic
p7719
I8508
sVreturns
p7720
I3797
sVarcade
p7721
I5419
sVconvention
p7722
I8511
sVwhite
p7723
I4668
sVgives
p7724
I4669
sVexploring
p7725
I4671
sVhug
p7726
I8513
sVhub
p7727
I8514
sVhumans
p7728
I6236
sVstylized
p7729
I3801
sVcops
p7730
I7758
sVfreeze
p7731
I3802
sVholder
p7732
I8517
sVwide
p7733
I4709
sVoats
p7734
I3803
sVr
p7735
I8519
sVcards
p7736
I3806
sVchugs
p7737
I8520
sVpowder
p7738
I248
sVpre
p7739
I8521
sVregister
p7740
I3807
sVana
p7741
I8734
sVtarts
p7742
I4745
sVann
p7743
I8523
sVstraddles
p7744
I4755
sVmates
p7745
I8524
sVtanning
p7746
I8525
sVrent
p7747
I3809
sVans
p7748
I8526
sVexchanging
p7749
I3810
sVsteers
p7750
I6514
sVsells
p7751
I3811
sVany
p7752
I8527
sVbatting
p7753
I3812
sVsuperman
p7754
I3813
sVupholstered
p7755
I8528
sVsilhouette
p7756
I8529
sVdining
p7757
I8531
sVanimation
p7758
I3814
sVthermometer
p7759
I8532
sVresembling
p7760
I3816
sVsurf
p7761
I3817
sVhooves
p7762
I4792
sVsure
p7763
I3818
sVmultiple
p7764
I8533
sVequestrian
p7765
I3819
sVsurfboarders
p7766
I8375
sVfalls
p7767
I8534
sVvisitors
p7768
I8535
sVdonation
p7769
I3821
sVnet
p7770
I6913
sVcleared
p7771
I3822
sVbluebird
p7772
I8537
sVicon
p7773
I3823
sVpencils
p7774
I6286
sVseafood
p7775
I8538
sVcuddles
p7776
I8539
sVhungry
p7777
I3825
sVatvs
p7778
I8540
sVbeaded
p7779
I3826
sVsenior
p7780
I8541
sVcuddled
p7781
I8542
sVhelmeted
p7782
I5377
sVquantity
p7783
I8543
sVslope
p7784
I1367
sVperch
p7785
I8544
sVconvoy
p7786
I4128
sVheap
p7787
I8379
sVrecipe
p7788
I8545
sVdandelions
p7789
I8546
sVsouthwestern
p7790
I8547
sVtrot
p7791
I3833
sVwoolen
p7792
I8549
sVgull
p7793
I3836
sVstate
p7794
I8498
sVstains
p7795
I7576
sVwood
p7796
I8551
sVbelieving
p7797
I3838
sVcabs
p7798
I7785
sVwool
p7799
I8552
sVicebox
p7800
I3839
sVlighted
p7801
I8553
sVviewpoint
p7802
I8554
sVbegging
p7803
I8555
sVbareback
p7804
I3840
sVlighter
p7805
I4904
sVdye
p7806
I8556
sVhedge
p7807
I3842
sVinstalled
p7808
I629
sVcautionary
p7809
I3843
sVreveal
p7810
I4914
sVregarding
p7811
I8557
sVskewered
p7812
I3844
sValuminum
p7813
I8558
sVbraves
p7814
I6009
sVnaked
p7815
I4927
sVpenguins
p7816
I8559
sVbison
p7817
I8560
sVdough
p7818
I7577
sVbought
p7819
I4433
sVdiscussing
p7820
I3846
sVmicrophones
p7821
I3847
sVreveals
p7822
I8561
sVpicnic
p7823
I8562
sVpane
p7824
I5234
sVturntable
p7825
I3849
sVcollege
p7826
I3850
sVparking
p7827
I4977
sVturbine
p7828
I1909
sVsurfaces
p7829
I3852
sVbicyclist
p7830
I8564
sVways
p7831
I8565
sVreview
p7832
I8566
sVspoons
p7833
I7385
sVoutside
p7834
I3854
sVarrival
p7835
I9143
sVmessed
p7836
I2907
sVpassangers
p7837
I3856
sVguitar
p7838
I5038
sVnd
p7839
I3911
sVdensely
p7840
I3858
sVdiners
p7841
I3859
sV20
p7842
I8568
sVcomb
p7843
I8569
sVcome
p7844
I8570
sVpostage
p7845
I8571
sVwanders
p7846
I3860
sVefficiency
p7847
I6787
sVregion
p7848
I8572
sVquiet
p7849
I3861
sVofficer
p7850
I3862
sVberry
p7851
I3864
sVrailway
p7852
I3865
sVduty
p7853
I5080
sVpakistan
p7854
I5083
sVkey
p7855
I2083
sVbricks
p7856
I4635
sVarmchair
p7857
I5087
sVpot
p7858
I8800
sVhunched
p7859
I3868
sVcobbled
p7860
I3673
sVpop
p7861
I5091
sVsampling
p7862
I8575
sVbroccolli
p7863
I8576
sVpole
p7864
I8577
sVjammed
p7865
I3870
sV66
p7866
I4136
sVpolo
p7867
I8578
sVbizarre
p7868
I8579
sVpoll
p7869
I8580
sVstroking
p7870
I3873
sVrunaway
p7871
I8581
sVraring
p7872
I8582
sVturkey
p7873
I3874
sVteammate
p7874
I5111
sVblend
p7875
I6480
sVcoupe
p7876
I8583
sVpeaceful
p7877
I8584
sVhelicopter
p7878
I3876
sVcords
p7879
I8585
sVhardly
p7880
I8586
sVravioli
p7881
I5133
sVpeaking
p7882
I3878
sVdirection
p7883
I7541
sVtiger
p7884
I3879
sVeatery
p7885
I3880
sVpenn
p7886
I7583
sVstandup
p7887
I3881
sVattentive
p7888
I8590
sVspirit
p7889
I3883
sVpilot
p7890
I3884
sVpaying
p7891
I8591
sVwineglasses
p7892
I3886
sVmount
p7893
I3887
sVtwigs
p7894
I8592
sVcash
p7895
I3889
sVcast
p7896
I3890
sVslippery
p7897
I3891
sVshops
p7898
I8594
sVslippers
p7899
I3892
sVvest
p7900
I5188
sVcandies
p7901
I3893
sVtelephone
p7902
I5197
sVcouples
p7903
I5200
sVgood
p7904
I8596
sVclutter
p7905
I5206
sVironic
p7906
I3894
sVhelmet
p7907
I8597
sVvivid
p7908
I8598
sVmold
p7909
I6016
sVfender
p7910
I3896
sVbowl
p7911
I8599
sVcrops
p7912
I2213
sVscrubby
p7913
I2959
sVbows
p7914
I8600
sVmacaroni
p7915
I8601
sVisle
p7916
I6182
sVderby
p7917
I879
sVpersona
p7918
I3898
sVbarefoot
p7919
I8603
sVbooths
p7920
I8604
sVnest
p7921
I3899
sVdriver
p7922
I8605
sVdrives
p7923
I8606
sVweed
p7924
I3900
sVdriven
p7925
I8608
sVdevoid
p7926
I8609
sVcanister
p7927
I5696
sVdelicate
p7928
I3902
sVstatue
p7929
I3903
sVchanging
p7930
I8610
sVcartoon
p7931
I3904
sVimplements
p7932
I8612
sVomelette
p7933
I3905
sVpennsylvania
p7934
I3906
sVdelectable
p7935
I3907
sVwithout
p7936
I3908
sVflakes
p7937
I8615
sVjersey
p7938
I6789
sVcomponents
p7939
I8616
sVdeflated
p7940
I3910
sVmodel
p7941
I8617
sVmodem
p7942
I953
sVfigs
p7943
I4550
sVdesolate
p7944
I7612
sVwhen
p7945
I3676
sVguided
p7946
I8619
sVkilt
p7947
I8620
sVactions
p7948
I8138
sVlavish
p7949
I8621
sVkill
p7950
I8622
sVpolish
p7951
I3912
sVsatin
p7952
I3913
sVguides
p7953
I8624
sVtball
p7954
I4231
sVhalfway
p7955
I3914
sVblow
p7956
I8625
sVcorks
p7957
I578
sVwomans
p7958
I8626
sVrose
p7959
I3915
sVseems
p7960
I3916
sVexcept
p7961
I8627
sVpallet
p7962
I8628
sVlets
p7963
I3918
sVshrine
p7964
I8629
sVsamples
p7965
I8630
sVhind
p7966
I8631
sVpoised
p7967
I6964
sVtheyre
p7968
I3524
sVstyles
p7969
I6159
sVholding
p7970
I8632
sVcode
p7971
I5462
sVfridge
p7972
I5368
sVtopper
p7973
I8729
sVstyled
p7974
I5376
sVconfined
p7975
I3921
sVsidebyside
p7976
I3922
sVcolor
p7977
I8573
sVsheared
p7978
I8635
sVdepot
p7979
I8393
sVstandstill
p7980
I8636
sVgrowling
p7981
I8087
sVtowed
p7982
I3926
sVoddly
p7983
I8637
sVdonations
p7984
I3927
sVtower
p7985
I3928
sVsimulator
p7986
I5421
sVpacific
p7987
I8639
sVcowboys
p7988
I8640
sVprovided
p7989
I8641
sVslice
p7990
I5451
sVmicro
p7991
I2913
sVbento
p7992
I3933
sVshirtless
p7993
I8642
sVlongboard
p7994
I8643
sVstops
p7995
I6594
sVmoon
p7996
I3934
sVpiping
p7997
I648
sVhipster
p7998
I5470
sVprovides
p7999
I8645
sVgoogles
p8000
I3936
sVdiced
p8001
I3937
sVeiffel
p8002
I8396
sVbeached
p8003
I3938
sVnails
p8004
I3939
sVinspect
p8005
I8648
sVkleenex
p8006
I3940
sVwades
p8007
I8649
sVok
p8008
I8650
sVoj
p8009
I8651
sVjeep
p8010
I3942
sVof
p8011
I8652
sVod
p8012
I8653
sVshrimp
p8013
I3943
sVinforming
p8014
I3944
sVstand
p8015
I3945
sVox
p8016
I8654
sVot
p8017
I8655
sVos
p8018
I8656
sVor
p8019
I1436
sVop
p8020
I8657
sVladies
p8021
I3946
sVpolka
p8022
I2090
sVcomforters
p8023
I8659
sVgarb
p8024
I3949
sVmote
p8025
I5358
sVeveryone
p8026
I7594
sVoverripe
p8027
I5559
sVsnowmen
p8028
I5565
sVupstairs
p8029
I3951
sVbuds
p8030
I3952
sVthere
p8031
I3953
sVferris
p8032
I8029
sVhouse
p8033
I7596
sVvalley
p8034
I8660
sVenergy
p8035
I8661
sVilluminated
p8036
I8662
sVkittens
p8037
I3955
sVamongst
p8038
I3957
sVmonks
p8039
I4955
sVilluminates
p8040
I8663
sVgrungy
p8041
I8664
sVwideeyed
p8042
I3959
sVlonger
p8043
I7945
sVapplying
p8044
I8665
sVanchovies
p8045
I8666
sVgrass
p8046
I3961
sVvespas
p8047
I3962
sVtoilet
p8048
I8668
sVculinary
p8049
I1930
sVtoiler
p8050
I6017
sVtaste
p8051
I3963
sVprotrudes
p8052
I5659
sValarm
p8053
I8669
sVbritain
p8054
I41
sVtasty
p8055
I3964
sVoperation
p8056
I652
sVoverflowing
p8057
I3780
sVcollared
p8058
I8670
sVbicycling
p8059
I8671
sVidiot
p8060
I8672
sVswords
p8061
I8673
sVrubber
p8062
I8674
sVroses
p8063
I3965
sV5
p8064
I8675
sVtrash
p8065
I8676
sVcamouflaged
p8066
I7320
sVpillows
p8067
I3967
sVseparate
p8068
I8677
sVsymbol
p8069
I5718
sVmidair
p8070
I8678
sVcove
p8071
I6327
sVincludes
p8072
I8679
sVincluded
p8073
I8681
sVbrass
p8074
I3970
sVarchitecture
p8075
I8682
sVsemicircle
p8076
I3971
sVcalls
p8077
I8683
sVwife
p8078
I3973
sVodds
p8079
I8684
sVcurve
p8080
I8685
sVcurvy
p8081
I8686
sVrimmed
p8082
I8688
sVapparel
p8083
I5754
sVpeeks
p8084
I8644
sVplatter
p8085
I3975
sVtransports
p8086
I5757
sVall
p8087
I5762
sVlace
p8088
I8690
sVchinese
p8089
I1004
sVswirly
p8090
I3977
sVale
p8091
I4354
sVparakeets
p8092
I3978
sVladders
p8093
I3979
sVexecuting
p8094
I8692
sVsurgical
p8095
I8693
sVdisc
p8096
I5774
sVparmesan
p8097
I8694
sVdish
p8098
I3982
sVfollow
p8099
I8695
sVdisk
p8100
I1154
sVglimpse
p8101
I3984
sVapartment
p8102
I3985
sVremarkable
p8103
I8404
sVlining
p8104
I8696
sVacting
p8105
I8697
sVsparkling
p8106
I8698
sVprogram
p8107
I8699
sVdairy
p8108
I3987
sVsiblings
p8109
I8701
sVpresentation
p8110
I8702
sVtethered
p8111
I3990
sVactivities
p8112
I3991
sVbelonging
p8113
I8703
sVwoman
p8114
I8704
sVsong
p8115
I8705
sVfar
p8116
I8706
sVgrinds
p8117
I8707
sVfat
p8118
I8708
sVsimpsons
p8119
I8709
sVsweaters
p8120
I2533
sVfan
p8121
I5832
sVawful
p8122
I5836
sVsony
p8123
I8712
sVticket
p8124
I9162
sVwilting
p8125
I8714
sVand
p8126
I8715
sVlist
p8127
I3995
sVgrandfather
p8128
I8716
sVtrench
p8129
I8717
sVundone
p8130
I8718
sVteh
p8131
I8720
sVcockatoo
p8132
I5868
sVten
p8133
I8721
sVtea
p8134
I8722
sVted
p8135
I8723
sVtee
p8136
I8724
sVdesign
p8137
I8725
sVcheeses
p8138
I5888
sVriderless
p8139
I8726
sVsub
p8140
I3999
sVsun
p8141
I4000
sVsum
p8142
I4001
sVcrust
p8143
I5893
sVanniversary
p8144
I8727
sVcrush
p8145
I4002
sVsuv
p8146
I4003
sVversion
p8147
I4004
sVracing
p8148
I5904
sVguns
p8149
I8728
sVmultitude
p8150
I4005
sVsunbathers
p8151
I4006
sVtoes
p8152
I4007
sVtags
p8153
I4008
sVthemself
p8154
I4009
sVdirections
p8155
I8730
sVobserving
p8156
I5399
sVmmm
p8157
I2924
sVnaval
p8158
I4012
sVextraordinary
p8159
I2925
sVsiamese
p8160
I8732
sVhovers
p8161
I6035
sVfencedin
p8162
I8510
sVterminals
p8163
I7606
sVcucumbers
p8164
I5942
sVminiature
p8165
I5944
sVmilkshake
p8166
I4013
sVoptions
p8167
I8735
sVelongated
p8168
I4014
sVsticking
p8169
I8736
sVguacamole
p8170
I4015
sVbinders
p8171
I4016
sVscreens
p8172
I8737
sVtexts
p8173
I8738
sVarmoire
p8174
I8739
sVappliances
p8175
I5987
sVsmal
p8176
I8741
sVproceed
p8177
I4019
sVdonuts
p8178
I4020
sVflowered
p8179
I8411
sVrustic
p8180
I4021
sVpromoting
p8181
I3696
sVbranded
p8182
I8743
sVmarkets
p8183
I4023
sVminor
p8184
I4024
sVhorses
p8185
I4025
sVladybug
p8186
I8744
sVflap
p8187
I4027
sVgrabbing
p8188
I8745
sVwaxed
p8189
I8746
sVowners
p8190
I4028
sVflag
p8191
I4029
sVstethoscope
p8192
I6029
sVstick
p8193
I8747
sVknown
p8194
I4030
sVrooster
p8195
I4455
sVsleeveless
p8196
I4032
sVpolicemen
p8197
I8749
sVwrestler
p8198
I4035
sVwrestles
p8199
I5632
sVgothic
p8200
I4666
sVprotestors
p8201
I8750
sVcomputers
p8202
I8751
sVpony
p8203
I4038
sVchallenging
p8204
I8752
sVdivision
p8205
I1398
sVsectioned
p8206
I8754
sVtaht
p8207
I2932
sVprotects
p8208
I6086
sVurinals
p8209
I8658
sVpond
p8210
I4039
sVairplane
p8211
I8755
sVswung
p8212
I4041
sVoffspring
p8213
I8756
sVextinguisher
p8214
I8757
sVcourt
p8215
I4042
sVdreads
p8216
I8758
sVkhakis
p8217
I6107
sVrather
p8218
I4044
sVbreaking
p8219
I8759
sVuntied
p8220
I4045
sVspeeding
p8221
I8761
sVexplains
p8222
I6135
sVgoat
p8223
I6136
sVtinfoil
p8224
I4046
sVsandwich
p8225
I8762
sVumpires
p8226
I6157
sVpanoramic
p8227
I6158
sVlighting
p8228
I4047
sVadventure
p8229
I4048
sVsoftball
p8230
I4049
sVconcentrating
p8231
I4050
sVshort
p8232
I4051
sVsusan
p8233
I4052
sVshady
p8234
I8381
sVnonchalantly
p8235
I8765
sVdeparture
p8236
I4935
sVartful
p8237
I6181
sVfooted
p8238
I6185
sVshore
p8239
I4053
sVshade
p8240
I4054
sVshorn
p8241
I4055
sVmaneuver
p8242
I4056
sVencased
p8243
I4057
sVbuddhist
p8244
I4459
sVhandlebars
p8245
I8768
sVdeveloped
p8246
I4058
sVmission
p8247
I8769
sVdisabled
p8248
I8770
sVisnt
p8249
I4059
sVhandrails
p8250
I4060
sVforlorn
p8251
I6756
sVavenue
p8252
I6210
sVstyle
p8253
I6216
sVglide
p8254
I8771
sVmattress
p8255
I4062
sVresort
p8256
I4063
sVblenders
p8257
I6229
sVteens
p8258
I5028
sVoar
p8259
I3388
sVsoccer
p8260
I4065
sVmight
p8261
I8772
sValter
p8262
I8773
sVreturn
p8263
I8774
sVsucking
p8264
I6244
sVaggressively
p8265
I6048
sVhoping
p8266
I4583
sVclippers
p8267
I8775
sVunderground
p8268
I6527
sVtortillas
p8269
I4067
sVhairdryer
p8270
I4068
sVbigger
p8271
I8776
sVimpressive
p8272
I3705
sVcubicles
p8273
I8777
sVtankless
p8274
I8778
sVcobblestones
p8275
I8779
sVsnowboarders
p8276
I6281
sVletting
p8277
I8223
sVjetway
p8278
I9057
sVpirates
p8279
I8782
sVweight
p8280
I4071
sVfixture
p8281
I8783
sVhim
p8282
I6683
sVmodernized
p8283
I8784
sVscratching
p8284
I8785
sVinflated
p8285
I4072
sVbraided
p8286
I8786
sValcohol
p8287
I4073
sVjoin
p8288
I2524
sVlinens
p8289
I8787
sVdugout
p8290
I8788
sVhealth
p8291
I8789
sVhill
p8292
I4075
sVremodeling
p8293
I4076
sVcaucasian
p8294
I8792
sVroofs
p8295
I4077
sVcombed
p8296
I8793
sVfriday
p8297
I4078
sVtractors
p8298
I4079
sVcookie
p8299
I4080
sVteach
p8300
I8794
sVsidewalk
p8301
I6053
sVthrown
p8302
I8795
sVthread
p8303
I8796
sVcircuit
p8304
I8799
sVsnowboarding
p8305
I4082
sVbookbag
p8306
I739
sVthrows
p8307
I8801
sVbushel
p8308
I4084
sVfeed
p8309
I6404
sVdine
p8310
I4085
sVunhealthy
p8311
I8802
sVfeel
p8312
I4086
sVpork
p8313
I3710
sVfancy
p8314
I8803
sVtraveled
p8315
I4088
sVfeet
p8316
I4089
sVsailor
p8317
I833
sVblank
p8318
I8805
sVtraveler
p8319
I4090
sVsoaps
p8320
I4091
sVidea
p8321
I7597
sVpasses
p8322
I128
sVstory
p8323
I4092
sVtemperature
p8324
I8806
sVgourmet
p8325
I4093
sVleading
p8326
I8191
sVinteract
p8327
I8807
sVgrime
p8328
I4095
sVcomfy
p8329
I4097
sVrails
p8330
I8808
sVcollar
p8331
I4469
sVstork
p8332
I4099
sVpassed
p8333
I8810
sVsyrup
p8334
I8811
sVphotographing
p8335
I6456
sVstore
p8336
I4103
sVgps
p8337
I4104
sVattendants
p8338
I8812
sVhotel
p8339
I4107
sVpassersby
p8340
I4108
sVrifle
p8341
I4109
sVuncut
p8342
I8813
sVreflection
p8343
I6811
sVking
p8344
I4112
sVkind
p8345
I4113
sVcompartment
p8346
I7623
sVdouble
p8347
I6495
sVinstruction
p8348
I8815
sVaims
p8349
I6422
sVstall
p8350
I7133
sVstalk
p8351
I8816
sVoutdoors
p8352
I4114
sVdispenser
p8353
I8817
sVcleaner
p8354
I8818
sVuniforms
p8355
I8819
sVskyscrapers
p8356
I4117
sVsuspicious
p8357
I4119
sVdecadent
p8358
I3764
sValike
p8359
I6526
sVcleaned
p8360
I8821
sVsquints
p8361
I8822
sVrugs
p8362
I8823
sVsandwiched
p8363
I8824
sVcheck
p8364
I4121
sVfreshener
p8365
I4122
sVcropped
p8366
I8825
sVsandwiches
p8367
I8826
sVfinding
p8368
I6558
sVflexing
p8369
I6814
sVadded
p8370
I6564
sVelectric
p8371
I4123
sVpopulate
p8372
I4124
sVreach
p8373
I3441
sVreact
p8374
I3461
sVcigarette
p8375
I4125
sVstorefronts
p8376
I4126
sVnothing
p8377
I4127
sVstands
p8378
I4129
sVpatterned
p8379
I4130
sVtrolly
p8380
I2949
sVwindows
p8381
I6591
sVdoggie
p8382
I8830
sVtraditional
p8383
I4133
sVscantily
p8384
I2951
sVsaloon
p8385
I4134
sVlying
p8386
I4135
sVstones
p8387
I8832
sVloveseat
p8388
I8833
sVasphalt
p8389
I8835
sVstoned
p8390
I8837
sVunwrapped
p8391
I8838
sVfont
p8392
I950
sVgilded
p8393
I4137
sVdeserts
p8394
I6643
sVheavily
p8395
I4473
sVgrazes
p8396
I4138
sVatv
p8397
I4648
sVhip
p8398
I8842
sVshepherd
p8399
I4140
sVhis
p8400
I8844
sVhit
p8401
I8845
sVgains
p8402
I6667
sVsaluting
p8403
I8846
sVhil
p8404
I8847
sVbanquet
p8405
I6825
sVnibbles
p8406
I4142
sVnecked
p8407
I4143
sVinvestigate
p8408
I6700
sVcartoons
p8409
I6702
sVactivity
p8410
I8849
sVheaping
p8411
I4145
sVwheeling
p8412
I4146
sVminifridge
p8413
I8850
sVsnowstorm
p8414
I8851
sVwrote
p8415
I4148
sVbars
p8416
I4227
sVstump
p8417
I8852
sVskills
p8418
I8853
sVtarps
p8419
I8854
sVbarb
p8420
I8855
sVbare
p8421
I6728
sVare
p8422
I8856
sVbark
p8423
I8857
sVheaped
p8424
I4151
sVarm
p8425
I1706
sVbarn
p8426
I6747
sVyouth
p8427
I3596
sVlearns
p8428
I8859
sVglistening
p8429
I955
sVnailed
p8430
I8860
sVnutella
p8431
I8861
sVunpaved
p8432
I6197
sVblurs
p8433
I4152
sVdrooping
p8434
I8863
sVcreme
p8435
I1813
sVvarious
p8436
I8864
sVplywood
p8437
I8865
sVnumerous
p8438
I913
sVrared
p8439
I8866
sVpaisley
p8440
I8867
sVlatin
p8441
I6781
sVrecently
p8442
I8868
sVcreating
p8443
I4155
sVsold
p8444
I4156
sVattention
p8445
I6458
sVoutfit
p8446
I4158
sVcitys
p8447
I4159
sVbibs
p8448
I4160
sVlap
p8449
I7308
sVbronze
p8450
I8870
sVc
p8451
I8871
sVblazer
p8452
I3207
sVbodyboard
p8453
I4162
sVlicense
p8454
I8872
sVroman
p8455
I4163
sVwitch
p8456
I3718
sVfinds
p8457
I8873
sVkiteboards
p8458
I4164
sVflies
p8459
I8874
sVsky
p8460
I9153
sVwastebasket
p8461
I4166
sVdudes
p8462
I6827
sVvillage
p8463
I4168
sVcrispy
p8464
I4169
sVgoats
p8465
I4170
sVsuspenders
p8466
I8877
sVduo
p8467
I8878
sVoverlook
p8468
I8413
sVpolitical
p8469
I4171
sVdue
p8470
I8880
sVdug
p8471
I8881
sVpc
p8472
I3757
sVpf
p8473
I8882
sVbrick
p8474
I8280
sVpm
p8475
I8883
sVaffectionate
p8476
I4173
sVsiting
p8477
I6868
sVreferee
p8478
I4174
sVflight
p8479
I4175
sV1950s
p8480
I2729
sVpedals
p8481
I6062
sVfirefighters
p8482
I4177
sVtogo
p8483
I8885
sVrocking
p8484
I4179
sVinstructor
p8485
I4180
sVjars
p8486
I4480
sVtoga
p8487
I8888
sVplants
p8488
I4181
sVguarding
p8489
I676
sVfrozen
p8490
I4183
sVbatch
p8491
I8889
sVparachutes
p8492
I8891
sVbarricade
p8493
I4184
sVhomework
p8494
I6824
sVmoustache
p8495
I8892
sVtheres
p8496
I6925
sVidentical
p8497
I8893
sVdemon
p8498
I4187
sVleans
p8499
I6939
sVshamrock
p8500
I8894
sVrim
p8501
I8895
sVnightstand
p8502
I4190
sVlodged
p8503
I8896
sVrig
p8504
I6946
sVwaterside
p8505
I1826
sVparading
p8506
I8897
sVorders
p8507
I2958
sVdelicious
p8508
I6689
sVkimono
p8509
I4192
sVpeoples
p8510
I6965
sV9
p8511
I4193
sVspears
p8512
I8898
sVdaughters
p8513
I4194
sVsliver
p8514
I8899
sVarrives
p8515
I8900
sVmountain
p8516
I8901
sVflows
p8517
I6985
sVholidays
p8518
I4198
sVusually
p8519
I8902
sVflown
p8520
I4199
sVarrived
p8521
I8903
sVbirch
p8522
I8905
sVlower
p8523
I8906
sVnoodle
p8524
I8907
sVcheek
p8525
I7014
sVbounces
p8526
I8908
sVcheer
p8527
I4200
sVedge
p8528
I8909
sVmachinery
p8529
I4202
sVoneway
p8530
I8910
sVwrangling
p8531
I7524
sVstating
p8532
I7022
sVhotdog
p8533
I8911
sVcarport
p8534
I4203
sVfacial
p8535
I4482
sVergonomic
p8536
I8912
sVpigeons
p8537
I8913
sVcompetitive
p8538
I8914
sVinspecting
p8539
I7984
sVprince
p8540
I7051
sVtables
p8541
I4205
sVloading
p8542
I8915
sVtablet
p8543
I4206
sVworkers
p8544
I4207
sVexhibition
p8545
I8916
sVcustomers
p8546
I1839
sVvendor
p8547
I7086
sVparasurfing
p8548
I4209
sVdvds
p8549
I8918
sVsittin
p8550
I8919
sVsharpener
p8551
I8920
sVspires
p8552
I7098
sVdoorways
p8553
I8146
sVseperate
p8554
I7109
sVshaped
p8555
I4212
sVairshow
p8556
I8921
sVseemingly
p8557
I8764
sVshapes
p8558
I930
sVcollect
p8559
I4214
sVseashore
p8560
I6069
sVstreaming
p8561
I8922
sVlitter
p8562
I8923
sVmarmalade
p8563
I8924
sVcandy
p8564
I6834
sVwonderland
p8565
I4215
sVsauces
p8566
I7160
sVsaucer
p8567
I4217
sVstately
p8568
I3714
sVnosing
p8569
I8925
sVprop
p8570
I8926
sVprom
p8571
I8927
sVretro
p8572
I7185
sVtends
p8573
I8929
sVcontrasting
p8574
I4219
sVbartender
p8575
I4220
sVjumps
p8576
I8930
sVmartin
p8577
I6880
sVperpendicular
p8578
I4221
sVzombie
p8579
I4222
sValoft
p8580
I4223
sVintense
p8581
I5069
sVprojector
p8582
I3895
sVpipeline
p8583
I4226
sVkitchenette
p8584
I4228
sVcompleting
p8585
I8931
sVplaza
p8586
I4229
sVwineglass
p8587
I8932
sVbirdbath
p8588
I7240
sVsurfers
p8589
I7241
sVrange
p8590
I4230
sVgreets
p8591
I8933
sVwomens
p8592
I4232
sVplethora
p8593
I7274
sVstitched
p8594
I8934
sVmommy
p8595
I4233
sVjohns
p8596
I4234
sVmomma
p8597
I4235
sVsports
p8598
I4236
sViwth
p8599
I8935
sVcouches
p8600
I8936
sVcanal
p8601
I8937
sVimpressed
p8602
I4238
sVrows
p8603
I4239
sVquestion
p8604
I7303
sVamidst
p8605
I6003
sVbaggy
p8606
I4242
sVvendors
p8607
I8939
sVsections
p8608
I4244
sVfiles
p8609
I4245
sVmountains
p8610
I8940
sVskewers
p8611
I8941
sVraisins
p8612
I4246
sVcloth
p8613
I4247
sVfiled
p8614
I7346
sVupright
p8615
I9086
sVcrane
p8616
I8944
sVkitchenware
p8617
I4248
sVraising
p8618
I7354
sVpenguin
p8619
I4250
sVconsist
p8620
I4252
sVlandscaped
p8621
I7361
sVfries
p8622
I8946
sVfried
p8623
I8949
sVcalled
p8624
I8950
sVmodeled
p8625
I6813
sVv
p8626
I4036
sVsoars
p8627
I8952
sVsepia
p8628
I4253
sVwarning
p8629
I7397
sVcrepes
p8630
I7400
sVrally
p8631
I4254
sVgraham
p8632
I4255
sVottomans
p8633
I7412
sVrainy
p8634
I4257
sVlemon
p8635
I8953
sVpeach
p8636
I4259
sVrains
p8637
I4260
sVpeace
p8638
I4261
sVbacks
p8639
I4262
sVtowers
p8640
I6079
sVschoolbus
p8641
I6049
sVmock
p8642
I4266
sVnice
p8643
I4267
sVmustard
p8644
I7442
sVbreasts
p8645
I4269
sVhelping
p8646
I4270
sVbarren
p8647
I688
sVgenerated
p8648
I7455
sVwakeboarding
p8649
I8955
sVallowing
p8650
I4271
sVposters
p8651
I4272
sVpottery
p8652
I8957
sVvice
p8653
I4273
sVattacking
p8654
I5299
sVwaxing
p8655
I8958
sVnasa
p8656
I8959
sVthames
p8657
I7487
sVbroad
p8658
I2148
sVdodging
p8659
I7648
sVbuffalo
p8660
I4277
sVonce
p8661
I8530
sVmardi
p8662
I8960
sVwrestle
p8663
I4278
sVunripened
p8664
I7504
sVsteve
p8665
I8962
sVwindy
p8666
I4281
sVgang
p8667
I4282
sVwinds
p8668
I4283
sVmagnifying
p8669
I8964
sVcupboards
p8670
I7521
sVgold
p8671
I2880
sVdisposal
p8672
I8965
sVfenced
p8673
I1818
sVfloss
p8674
I4492
sVlanguages
p8675
I4284
sVsqueezing
p8676
I8966
sVstable
p8677
I8967
sVinclude
p8678
I4285
sVfences
p8679
I7551
sVdramatically
p8680
I4286
sVwaiters
p8681
I8968
sVrag
p8682
I412
sVuturn
p8683
I3736
sVcay
p8684
I1442
sVspool
p8685
I4287
sVspoon
p8686
I4288
sVbowler
p8687
I6083
sVslogan
p8688
I8970
sVdrinking
p8689
I8971
sVnotes
p8690
I8973
sVsmaller
p8691
I4290
sVgripping
p8692
I7615
sVgoodies
p8693
I7619
sVfolds
p8694
I7621
sVwrestling
p8695
I4291
sVprocession
p8696
I8974
sVfold
p8697
I7627
sVtraveling
p8698
I4292
sVmanipulating
p8699
I7633
sVcheckers
p8700
I8975
sVshowcase
p8701
I4293
sVwaiting
p8702
I8978
sVattire
p8703
I8979
sVcozy
p8704
I8980
sVkangaroo
p8705
I4295
sVpushing
p8706
I7673
sVwraps
p8707
I701
sVexplore
p8708
I4296
sVoars
p8709
I8981
sVsexy
p8710
I7687
sVcyclist
p8711
I3373
sVmetro
p8712
I8982
sVadjusts
p8713
I8983
sVshades
p8714
I4299
sVleaving
p8715
I4300
sVengine
p8716
I8984
sVheadless
p8717
I7708
sVsubmerged
p8718
I4301
sVspices
p8719
I8985
sVinitials
p8720
I7723
sVshovel
p8721
I1058
sVapple
p8722
I5093
sVduct
p8723
I7726
sVapp
p8724
I4303
sVshoved
p8725
I7734
sVmotor
p8726
I8987
sVripeness
p8727
I439
sVfireplug
p8728
I4305
sVuse
p8729
I8988
sVfrom
p8730
I4306
sVusb
p8731
I8989
sVusa
p8732
I8990
sViced
p8733
I8991
sVrackett
p8734
I8992
sVrackets
p8735
I8994
sVfew
p8736
I8995
sVdepicted
p8737
I8996
sVautomobile
p8738
I4094
sVfreezers
p8739
I7783
sVparliament
p8740
I8997
sVremovable
p8741
I706
sVporch
p8742
I7787
sVmusician
p8743
I8999
sVantennae
p8744
I4309
sVparrots
p8745
I4310
sVrabbit
p8746
I9000
sVbrochure
p8747
I9001
sVwomen
p8748
I130
sVwtih
p8749
I9002
sVduster
p8750
I4311
sVrefigerator
p8751
I4312
sVgetting
p8752
I9003
sVtinted
p8753
I6742
sVdusted
p8754
I4314
sVnapkins
p8755
I7824
sVperched
p8756
I9005
sVposing
p8757
I6091
sVspilled
p8758
I9006
sVperformed
p8759
I8460
sVpatrol
p8760
I4317
sVtar
p8761
I9008
sVpad
p8762
I9009
sVparasailers
p8763
I4318
sVdripping
p8764
I9010
sVcarrot
p8765
I9011
sVhilton
p8766
I4319
sVsomething
p8767
I7849
sVtab
p8768
I9012
sVspa
p8769
I6092
sVtan
p8770
I7852
sVonions
p8771
I9013
sVbatches
p8772
I6344
sVunited
p8773
I9014
sVdecaying
p8774
I9015
sVpure
p8775
I7609
sVsix
p8776
I4322
sVsidewalks
p8777
I4323
sVstruggles
p8778
I4324
sVinstead
p8779
I7884
sVtoddler
p8780
I4326
sVsin
p8781
I551
sVsil
p8782
I7890
sVpuppets
p8783
I9017
sVbathes
p8784
I8536
sVcupboard
p8785
I9018
sVattend
p8786
I4328
sVbarricades
p8787
I9019
sVtack
p8788
I4329
sVwrist
p8789
I4330
sVtaco
p8790
I4331
sVfaucets
p8791
I4332
sVfootpath
p8792
I7908
sVsculptures
p8793
I9021
sVlight
p8794
I4334
sVstraps
p8795
I9023
sVscrubs
p8796
I7935
sVcrawling
p8797
I9024
sVnecklace
p8798
I7937
sVmartini
p8799
I9025
sVrusted
p8800
I4335
sVsanctioned
p8801
I4336
sVfarming
p8802
I9027
sVreporters
p8803
I4337
sVlooks
p8804
I9028
sVbadges
p8805
I4338
sVlounge
p8806
I9029
sVgrafitti
p8807
I4340
sVinlet
p8808
I9030
sVships
p8809
I9031
sVchoose
p8810
I7983
sVturban
p8811
I9033
sVorange
p8812
I9034
sVclusters
p8813
I7987
sVwellfurnished
p8814
I9035
sVcrowds
p8815
I4344
sVmagnet
p8816
I6425
sVcrash
p8817
I9037
sVpecans
p8818
I7999
sVblackberries
p8819
I4345
sVcitrus
p8820
I4346
sVmakings
p8821
I9038
sVpractice
p8822
I9039
sVbarbeque
p8823
I4348
sVoranges
p8824
I4349
sVflea
p8825
I4350
sVmushrooms
p8826
I6846
sVeasel
p8827
I9040
sVclippings
p8828
I8023
sVcrt
p8829
I9102
sVtram
p8830
I9041
sVfeast
p8831
I4353
sVbegs
p8832
I3752
sVtrimmed
p8833
I4355
sVcocker
p8834
I9042
sVtrap
p8835
I8037
sVblacktop
p8836
I8040
sVflavored
p8837
I8465
sVtray
p8838
I9043
sVflorets
p8839
I8047
sVrelated
p8840
I4358
sVremove
p8841
I9044
sVsectional
p8842
I9045
sVour
p8843
I4360
sVshearing
p8844
I4361
sVout
p8845
I4362
sVballroom
p8846
I4363
sVfrontier
p8847
I4364
sVparasailing
p8848
I9046
sVherded
p8849
I4365
sVvcr
p8850
I9047
sVlumber
p8851
I9004
sVperforms
p8852
I9048
sVherder
p8853
I4366
sVattentively
p8854
I9142
sVdive
p8855
I7059
sVhut
p8856
I8516
sVpours
p8857
I4370
sVutensil
p8858
I4371
sVipod
p8859
I4372
sVjumper
p8860
I7162
sVyork
p8861
I9050
sVdumpster
p8862
I9051
sVusual
p8863
I1797
sVgerbil
p8864
I6849
sVrepairing
p8865
I4373
sVriver
p8866
I4374
sVorganic
p8867
I4375
sVg
p8868
I4376
sVbarns
p8869
I9052
sVconversation
p8870
I9053
sVmanicured
p8871
I9054
sVbiting
p8872
I4377
sVtoasters
p8873
I9055
sVbouquet
p8874
I9056
sVhotplate
p8875
I6103
sVbonnet
p8876
I4379
sVnunchuck
p8877
I7411
sVsteams
p8878
I9058
sVumbrellas
p8879
I4380
sVdestinations
p8880
I6984
sVsucculents
p8881
I9060
sVunknown
p8882
I4381
sVmyspace
p8883
I9061
sVaccent
p8884
I9062
sVrenovation
p8885
I4383
sVtheir
p8886
I8221
sVdismantled
p8887
I5573
sVphotoshopped
p8888
I9063
sVlufthansa
p8889
I834
sVshell
p8890
I4386
sVshelf
p8891
I4387
sVshallow
p8892
I9064
sVmotorcycle
p8893
I5548
sVdreadlocks
p8894
I4388
sVslides
p8895
I9065
sVslider
p8896
I9066
sVreflecting
p8897
I4389
sVmules
p8898
I4390
sVjuly
p8899
I4391
sVpoliceman
p8900
I8420
sVboring
p8901
I9067
sVmoto
p8902
I5359
sVsculpture
p8903
I9068
sVclip
p8904
I4392
sVfowl
p8905
I4393
sVteenagers
p8906
I4394
sVmogul
p8907
I9069
sVbaseballs
p8908
I6108
sVpealed
p8909
I9070
sVfaux
p8910
I4395
sVintersecting
p8911
I9071
sVringed
p8912
I4397
sVcatholic
p8913
I4398
sVafraid
p8914
I9073
sVangle
p8915
I4399
sVsittign
p8916
I9074
sVbagel
p8917
I9075
sVwhich
p8918
I4401
sVdivers
p8919
I9076
sVvegetation
p8920
I9077
sVpatchy
p8921
I4403
sVpretzels
p8922
I4404
sVcombat
p8923
I9078
sVknees
p8924
I5321
sVwho
p8925
I4405
sVsnacking
p8926
I4406
sVtolit
p8927
I9080
sVclass
p8928
I8372
sVstatute
p8929
I4408
sVevergreens
p8930
I8376
sVhalved
p8931
I7666
sVskying
p8932
I4409
sVlooked
p8933
I9081
sVhi
p8934
I6856
sVguinea
p8935
I721
sVhighest
p8936
I6521
sVfied
p8937
I9082
sVbalding
p8938
I8407
sVbulging
p8939
I4411
sVplease
p8940
I9083
sVburners
p8941
I9084
sVautomated
p8942
I4517
sVartfully
p8943
I3310
sVseaweed
p8944
I9087
sVsuperimposed
p8945
I9088
sVchicken
p8946
I8426
sVfilthy
p8947
I2038
sVpleased
p8948
I8430
sVha
p8949
I6858
sVmugs
p8950
I8434
sVclutching
p8951
I9091
sVmuch
p8952
I175
sVcombs
p8953
I8442
sVsurroundings
p8954
I6093
sVsunflowers
p8955
I9093
sVcombo
p8956
I4415
sVpiano
p8957
I2674
sVthousands
p8958
I9094
sVcube
p8959
I4417
sVwatching
p8960
I6201
sVpayphone
p8961
I4419
sVones
p8962
I9095
sVcubs
p8963
I4420
sVwords
p8964
I9096
sVcoordinating
p8965
I4421
sVbronco
p8966
I4422
sVchips
p8967
I4423
sVpropellor
p8968
I7671
sVmarried
p8969
I4424
sVfuturistic
p8970
I9098
sVview
p8971
I9099
sVunison
p8972
I9100
sVrafts
p8973
I3947
sVworkbench
p8974
I4426
sVturbulent
p8975
I9101
sVartsy
p8976
I4427
sVviolet
p8977
I912
sVbarrels
p8978
I1632
sVenclosures
p8979
I4428
sVcloser
p8980
I9103
sVcloses
p8981
I2025
sVstill
p8982
I1478
sVgliders
p8983
I9105
sVcloset
p8984
I9106
sVmeatballs
p8985
I9108
sVidentification
p8986
I4430
sVfifties
p8987
I4431
sVclosed
p8988
I9109
sVcrude
p8989
I4432
sVlimit
p8990
I6862
sVpants
p8991
I9110
sVability
p8992
I8563
sVopening
p8993
I4434
sVjoy
p8994
I4435
sVbeverages
p8995
I7207
sVhuts
p8996
I8567
sVjob
p8997
I4436
sVjoe
p8998
I4437
sVswift
p8999
I4438
sVstucco
p9000
I4439
sVcourthouse
p9001
I8478
sVtiers
p9002
I8588
sVgrain
p9003
I9113
sVcanopy
p9004
I9114
sVsafely
p9005
I8613
sVgrounds
p9006
I4441
sVwall
p9007
I4442
sVshoving
p9008
I9115
sVwalk
p9009
I4443
sVpackaging
p9010
I9116
sVtable
p9011
I2856
sVtrays
p9012
I4445
sVmotorbike
p9013
I4446
sVdecent
p9014
I4448
sVreindeer
p9015
I9119
sVbbq
p9016
I9120
sVartisan
p9017
I6124
sVmotorcyles
p9018
I9121
sVpainted
p9019
I9122
sVurns
p9020
I6867
sVtap
p9021
I9007
sVpartitions
p9022
I8418
sVdressers
p9023
I8687
sVunpeeled
p9024
I8689
sVmaroon
p9025
I4525
sVpresent
p9026
I2694
sVabandoned
p9027
I4449
sVbedspreads
p9028
I2183
sVvanilla
p9029
I8719
sVchoices
p9030
I9125
sVwill
p9031
I9126
sVhovering
p9032
I9127
sVwild
p9033
I9128
sVwile
p9034
I9129
sVcutter
p9035
I8482
sVlayer
p9036
I9130
sVopenair
p9037
I45
sVmotif
p9038
I4452
sVlakeside
p9039
I4453
sVpews
p9040
I8748
sVbystanders
p9041
I4456
sVdraining
p9042
I4457
sVlayed
p9043
I9132
sVdual
p9044
I9133
sVave
p9045
I9134
sVperhaps
p9046
I4458
sVvintage
p9047
I8766
sVheadlight
p9048
I8767
sVcross
p9049
I9136
sVmember
p9050
I9137
sVlargest
p9051
I4460
sVunits
p9052
I4461
sVgets
p9053
I4462
sVtomatoes
p9054
I4463
sVdifficult
p9055
I8780
sVcellphones
p9056
I4464
sVelbows
p9057
I9138
sVgoblets
p9058
I8410
sVcoached
p9059
I4465
sVbeast
p9060
I9140
sVcoaches
p9061
I8797
sVstudent
p9062
I4466
sVpedal
p9063
I4467
sVwhale
p9064
I4468
sVlobby
p9065
I8809
sVwarming
p9066
I4470
sVgutter
p9067
I4471
sVplowed
p9068
I3648
sVcontest
p9069
I6872
sVunpacked
p9070
I9144
sVfighting
p9071
I9145
sVscissor
p9072
I6684
sVspectator
p9073
I4472
sVenglish
p9074
I9146
sVbandanna
p9075
I9147
sVbending
p9076
I9148
sVrocket
p9077
I9149
sVcamel
p9078
I8841
sVidentically
p9079
I9150
sVbatteries
p9080
I8848
sVfishing
p9081
I9151
sVwaterskiing
p9082
I4529
sVtoilets
p9083
I4475
sVrapid
p9084
I8869
sVconsole
p9085
I4476
sVsupply
p9086
I7684
sVsmith
p9087
I8875
sVhall
p9088
I6128
sVshutters
p9089
I4249
sVbook
p9090
I9154
sVhalo
p9091
I6129
sVusage
p9092
I4479
sVstowed
p9093
I8887
sVski
p9094
I9155
sVknob
p9095
I9156
sVsoccerball
p9096
I9157
sVbranch
p9097
I6587
sVwagon
p9098
I4033
sVprotesters
p9099
I9158
sVknow
p9100
I9159
sVknot
p9101
I9160
sVcatchers
p9102
I4483
sVpress
p9103
I4484
sVdoughnut
p9104
I4485
sVloses
p9105
I9163
sVpasties
p9106
I4486
sVkawasaki
p9107
I4487
sVbecause
p9108
I9165
sVshabby
p9109
I4120
sVsequence
p9110
I9166
sVmattresses
p9111
I9167
sVscared
p9112
I4488
sVchurch
p9113
I735
sVsearching
p9114
I9168
sVclydesdale
p9115
I9169
sVplatforms
p9116
I3875
sVgrowth
p9117
I8947
sVtwirling
p9118
I4489
sVdarkhaired
p9119
I9171
sVempire
p9120
I9172
sVmeatloaf
p9121
I4490
sVcutters
p9122
I9173
sVleaf
p9123
I8956
sVlead
p9124
I9174
sVleak
p9125
I9175
sVlean
p9126
I9176
sVmarkers
p9127
I8963
sVleap
p9128
I9177
sVcampfire
p9129
I4493
sVearrings
p9130
I9178
sVripped
p9131
I4494
sVconveyer
p9132
I9179
sVdangling
p9133
I8977
sVmitt
p9134
I9180
sVmurdered
p9135
I9182
sVshavings
p9136
I9183
sVpasta
p9137
I4495
sVfluorescent
p9138
I4496
sVpaste
p9139
I4497
sVslug
p9140
I9185
sVpike
p9141
I4498
sVrare
p9142
I4499
sVincline
p9143
I2078
sVextension
p9144
I9187
sVsaddle
p9145
I9188
sVcolumn
p9146
I1678
sVhaired
p9147
I4502
sVbiscuit
p9148
I9189
sVtiling
p9149
I9190
sVshipping
p9150
I9191
sVsurge
p9151
I9192
sVcarries
p9152
I4503
sVcarrier
p9153
I4504
sVsweat
p9154
I4505
sVcrusted
p9155
I9020
sVowl
p9156
I9026
sVown
p9157
I9193
sVpolished
p9158
I4506
sVwilderness
p9159
I4507
sVtravelers
p9160
I4508
sVpossessions
p9161
I7579
sVtag
p9162
I9195
sVheadphone
p9163
I9196
sVpajamas
p9164
I5477
sVtrunks
p9165
I2469
sVbrush
p9166
I9197
sVbirdhouse
p9167
I4510
sVrowboat
p9168
I9141
sVvan
p9169
I4511
sVartifacts
p9170
I4512
sVspiral
p9171
I4513
sVgroomed
p9172
I9198
sVcontinental
p9173
I9199
sVpowdered
p9174
I574
sVdynamite
p9175
I4514
sVcliff
p9176
I9200
sVbeard
p9177
I6720
sVlookign
p9178
I4515
sVcatsup
p9179
I4516
sVgranny
p9180
I9085
sVsqueeze
p9181
I4518
sVmade
p9182
I4519
sVhitter
p9183
I9097
sVwhether
p9184
I4520
sVprotesting
p9185
I4521
sVrecord
p9186
I9107
sVbelow
p9187
I4522
sVpersian
p9188
I8491
sVcake
p9189
I2357
sVdemonstrate
p9190
I9201
sVlightning
p9191
I7749
sVbroadly
p9192
I3528
sVstirring
p9193
I4524
sVgnawing
p9194
I6426
sVboardwalk
p9195
I9124
sVsheered
p9196
I4526
sVtrotting
p9197
I9203
sVplaques
p9198
I9135
sVincredible
p9199
I4528
sVboot
p9200
I9204
sVportion
p9201
I6881
sVpills
p9202
I9205
sVcurtained
p9203
I4530
sVother
p9204
I9206
sVboom
p9205
I9207
sVsick
p9206
I9208
sVspatulas
p9207
I4531
sVincredibly
p9208
I4532
sVsloping
p9209
I9209
sVillegally
p9210
I9211
sVkinds
p9211
I4533
sVshredded
p9212
I4534
sVmulch
p9213
I9212
sVnourishment
p9214
I4535
sVsandwhich
p9215
I9213
sVupwards
p9216
I9215
sVpate
p9217
I8125
sVgelato
p9218
I9216
sVawake
p9219
I746
sVpods
p9220
I9217
sVsash
p9221
I4539
s.